

Microchip MPLAB XC8 Assembler V2.45 build 20230818022343 
                                                                                               Mon Sep 09 11:44:53 2024

Microchip MPLAB XC8 C Compiler v2.45 (Free license) build 20230818022343 Og1 
     1                           	processor	18F4550
     2                           	fnconf	rparam,??,?,0
     3                           	pagewidth 120
     4                           	opt	flic
     5                           	psect	idataBANK0,global,class=CODE,delta=1,noexec
     6                           	psect	smallconst,global,reloc=2,class=SMALLCONST,delta=1,noexec
     7                           	psect	cinit,global,reloc=2,class=CODE,delta=1
     8                           	psect	bssBANK0,global,class=BANK0,space=1,delta=1,lowdata,noexec
     9                           	psect	dataBANK0,global,class=BANK0,space=1,delta=1,lowdata,noexec
    10                           	psect	cstackBANK0,global,class=BANK0,space=1,delta=1,lowdata,noexec
    11                           	psect	cstackCOMRAM,global,class=COMRAM,space=1,delta=1,lowdata,noexec
    12                           	psect	text0,global,reloc=2,class=CODE,delta=1
    13                           	psect	text1,global,reloc=2,class=CODE,delta=1
    14                           	psect	text2,global,reloc=2,class=CODE,delta=1
    15                           	psect	text3,global,reloc=2,class=CODE,delta=1
    16                           	psect	text4,global,reloc=2,class=CODE,delta=1,group=2
    17                           	psect	text5,global,reloc=2,class=CODE,delta=1,group=2
    18                           	psect	text6,global,reloc=2,class=CODE,delta=1,group=2
    19                           	psect	text7,global,reloc=2,class=CODE,delta=1,group=1
    20                           	psect	text8,global,reloc=2,class=CODE,delta=1,group=2
    21                           	psect	text9,global,reloc=2,class=CODE,delta=1,group=1
    22                           	psect	text10,global,reloc=2,class=CODE,delta=1,group=1
    23                           	psect	text11,global,reloc=2,class=CODE,delta=1,group=1
    24                           	psect	text12,global,reloc=2,class=CODE,delta=1,group=1
    25                           	psect	text13,global,reloc=2,class=CODE,delta=1,group=1
    26                           	psect	text14,global,reloc=2,class=CODE,delta=1,group=1
    27                           	psect	text15,global,reloc=2,class=CODE,delta=1,group=1
    28                           	psect	text16,global,reloc=2,class=CODE,delta=1
    29                           	psect	text17,global,reloc=2,class=CODE,delta=1
    30                           	psect	text18,global,reloc=2,class=CODE,delta=1
    31                           	psect	text19,global,reloc=2,class=CODE,delta=1
    32                           	psect	text20,global,reloc=2,class=CODE,delta=1
    33                           	psect	text21,global,reloc=2,class=CODE,delta=1
    34                           	psect	text22,global,reloc=2,class=CODE,delta=1
    35                           	psect	text23,global,reloc=2,class=CODE,delta=1
    36                           	psect	intcodelo,global,reloc=2,class=CODE,delta=1
    37                           	psect	intsave_regs,global,class=BIGRAM,space=1,delta=1,noexec
    38                           	psect	rparam,global,class=COMRAM,space=1,delta=1,noexec
    39                           	psect	temp,global,ovrld,common,class=COMRAM,space=1,delta=1
    40                           	psect	config,global,abs,ovrld,class=CONFIG,space=4,delta=1,noexec
    41   000000                     
    42                           ; Generated 23/03/2023 GMT
    43                           ; 
    44                           ; Copyright © 2023, Microchip Technology Inc. and its subsidiaries ("Microchip")
    45                           ; All rights reserved.
    46                           ; 
    47                           ; This software is developed by Microchip Technology Inc. and its subsidiaries ("Microch
      +                          ip").
    48                           ; 
    49                           ; Redistribution and use in source and binary forms, with or without modification, are
    50                           ; permitted provided that the following conditions are met:
    51                           ; 
    52                           ;     1. Redistributions of source code must retain the above copyright notice, this lis
      +                          t of
    53                           ;        conditions and the following disclaimer.
    54                           ; 
    55                           ;     2. Redistributions in binary form must reproduce the above copyright notice, this 
      +                          list
    56                           ;        of conditions and the following disclaimer in the documentation and/or other
    57                           ;        materials provided with the distribution. Publication is not required when
    58                           ;        this file is used in an embedded application.
    59                           ; 
    60                           ;     3. Microchip's name may not be used to endorse or promote products derived from th
      +                          is
    61                           ;        software without specific prior written permission.
    62                           ; 
    63                           ; THIS SOFTWARE IS PROVIDED BY MICROCHIP "AS IS" AND ANY EXPRESS OR IMPLIED WARRANTIES,
    64                           ; INCLUDING, BUT NOT LIMITED TO, THE IMPLIED WARRANTIES OF MERCHANTABILITY AND FITNESS F
      +                          OR
    65                           ; PURPOSE ARE DISCLAIMED.  IN NO EVENT SHALL MICROCHIP BE LIABLE FOR ANY DIRECT, INDIREC
      +                          T,
    66                           ; INCIDENTAL, SPECIAL, EXEMPLARY, OR CONSEQUENTIAL DAMAGES (INCLUDING BUT NOT LIMITED TO
    67                           ; PROCUREMENT OF SUBSTITUTE GOODS OR SERVICES; LOSS OF USE, DATA OR PROFITS; OR BUSINESS
    68                           ; INTERRUPTION) HOWSOEVER CAUSED AND ON ANY THEORY OF LIABILITY, WHETHER IN CONTRACT, ST
      +                          RICT
    69                           ; LIABILITY, OR TORT (INCLUDING NEGLIGENCE OR OTHERWISE) ARISING IN ANY WAY OUT OF THE U
      +                          SE OF
    70                           ; THIS SOFTWARE, EVEN IF ADVISED OF THE POSSIBILITY OF SUCH DAMAGE.
    71                           ; 
    72                           ; 
    73                           ; Code-generator required, PIC18F4550 Definitions
    74                           ; 
    75                           ; SFR Addresses
    76   000000                     
    77                           	psect	idataBANK0
    78   003016                     __pidataBANK0:
    79                           	callstack 0
    80                           
    81                           ;initializer for _payload
    82   003016  0061               	dw	97
    83   003018  0062               	dw	98
    84   00301A  0063               	dw	99
    85   00301C  0064               	dw	100
    86   00301E  0000               	dw	0
    87   000000                     _RCREG	set	4014
    88   000000                     _TXREG	set	4013
    89   000000                     _SPBRG	set	4015
    90   000000                     _BRG16	set	32195
    91   000000                     _LATD	set	3980
    92   000000                     _RX9D	set	32088
    93   000000                     _OERR	set	32089
    94   000000                     _FERR	set	32090
    95   000000                     _RCIF	set	31989
    96   000000                     _TRMT	set	32097
    97   000000                     _TX9D	set	32096
    98   000000                     _SPEN	set	32095
    99   000000                     _TXEN	set	32101
   100   000000                     _SREN	set	32093
   101   000000                     _CREN	set	32092
   102   000000                     _SYNC	set	32100
   103   000000                     _TX9	set	32102
   104   000000                     _TXIE	set	31980
   105   000000                     _RXDTP	set	32197
   106   000000                     _TXCKP	set	32196
   107   000000                     _LATDbits	set	3980
   108   000000                     _TRISCbits	set	3988
   109   000000                     _BRGH	set	32098
   110   000000                     _RCEN	set	32299
   111   000000                     _SPBRGH	set	4016
   112   000000                     _TRISD	set	3989
   113   000000                     _RCIE	set	31981
   114   000000                     _TXIF	set	31988
   115   000000                     _RX9	set	32094
   116                           
   117                           	psect	smallconst
   118   000800                     __psmallconst:
   119                           	callstack 0
   120   000800  00                 	db	0
   121   000801                     STR_1:
   122   000801  54                 	db	84	;'T'
   123   000802  58                 	db	88	;'X'
   124   000803  3A                 	db	58	;':'
   125   000804  20                 	db	32
   126   000805  00                 	db	0
   127   000806  00                 	db	0	; dummy byte at the end
   128   000000                     
   129                           ; #config settings
   130                           
   131                           	psect	cinit
   132   002F76                     __pcinit:
   133                           	callstack 0
   134   002F76                     start_initialization:
   135                           	callstack 0
   136   002F76                     __initialization:
   137                           	callstack 0
   138                           
   139                           ; Initialize objects allocated to BANK0 (10 bytes)
   140                           ; load TBLPTR registers with __pidataBANK0
   141   002F76  0E16               	movlw	low __pidataBANK0
   142   002F78  6EF6               	movwf	tblptrl,c
   143   002F7A  0E30               	movlw	high __pidataBANK0
   144   002F7C  6EF7               	movwf	tblptrh,c
   145   002F7E  0E00               	movlw	low (__pidataBANK0 shr (0+16))
   146   002F80  6EF8               	movwf	tblptru,c
   147   002F82  EE00  F0A6         	lfsr	0,__pdataBANK0
   148   002F86  EE10 F00A          	lfsr	1,10
   149   002F8A                     copy_data0:
   150   002F8A  0009               	tblrd		*+
   151   002F8C  CFF5 FFEE          	movff	tablat,postinc0
   152   002F90  50E5               	movf	postdec1,w,c
   153   002F92  50E1               	movf	fsr1l,w,c
   154   002F94  E1FA               	bnz	copy_data0
   155                           
   156                           ; Clear objects allocated to BANK0 (12 bytes)
   157   002F96  EE00  F09A         	lfsr	0,__pbssBANK0
   158   002F9A  0E0C               	movlw	12
   159   002F9C                     clear_0:
   160   002F9C  6AEE               	clrf	postinc0,c
   161   002F9E  06E8               	decf	wreg,f,c
   162   002FA0  E1FD               	bnz	clear_0
   163   002FA2                     end_of_initialization:
   164                           	callstack 0
   165   002FA2                     __end_of__initialization:
   166                           	callstack 0
   167   002FA2  905E               	bcf	int$flags,0,c	;clear compiler interrupt flag (level 1)
   168   002FA4  925E               	bcf	int$flags,1,c	;clear compiler interrupt flag (level 2)
   169   002FA6  0E00               	movlw	low (__Lsmallconst shr (0+16))
   170   002FA8  6EF8               	movwf	tblptru,c
   171   002FAA  0E08               	movlw	high __Lsmallconst
   172   002FAC  6EF7               	movwf	tblptrh,c
   173   002FAE  0100               	movlb	0
   174   002FB0  EF00  F016         	goto	_main	;jump to C main() function
   175                           
   176                           	psect	bssBANK0
   177   00009A                     __pbssBANK0:
   178                           	callstack 0
   179   00009A                     ___signbitf@F521:
   180                           	callstack 0
   181   00009A                     	ds	4
   182   00009E                     ___fpclassifyf@F465:
   183                           	callstack 0
   184   00009E                     	ds	4
   185   0000A2                     fabsf@F465:
   186                           	callstack 0
   187   0000A2                     	ds	4
   188                           
   189                           	psect	dataBANK0
   190   0000A6                     __pdataBANK0:
   191                           	callstack 0
   192   0000A6                     _payload:
   193                           	callstack 0
   194   0000A6                     	ds	10
   195                           
   196                           	psect	cstackBANK0
   197   000060                     __pcstackBANK0:
   198                           	callstack 0
   199   000060                     _uart_init$919:
   200                           	callstack 0
   201                           
   202                           ; 4 bytes @ 0x0
   203   000060                     	ds	4
   204   000064                     uart_init@e11:
   205                           	callstack 0
   206                           
   207                           ; 4 bytes @ 0x4
   208   000064                     	ds	4
   209   000068                     uart_init@min:
   210                           	callstack 0
   211                           
   212                           ; 4 bytes @ 0x8
   213   000068                     	ds	4
   214   00006C                     uart_init@e1:
   215                           	callstack 0
   216                           
   217                           ; 4 bytes @ 0xC
   218   00006C                     	ds	4
   219   000070                     uart_init@config:
   220                           	callstack 0
   221                           
   222                           ; 1 bytes @ 0x10
   223   000070                     	ds	1
   224   000071                     uart_init@e22:
   225                           	callstack 0
   226                           
   227                           ; 4 bytes @ 0x11
   228   000071                     	ds	4
   229   000075                     uart_init@x:
   230                           	callstack 0
   231                           
   232                           ; 4 bytes @ 0x15
   233   000075                     	ds	4
   234   000079                     uart_init@e2:
   235                           	callstack 0
   236                           
   237                           ; 4 bytes @ 0x19
   238   000079                     	ds	4
   239   00007D                     uart_init@e33:
   240                           	callstack 0
   241                           
   242                           ; 4 bytes @ 0x1D
   243   00007D                     	ds	4
   244   000081                     uart_init@e3:
   245                           	callstack 0
   246                           
   247                           ; 4 bytes @ 0x21
   248   000081                     	ds	4
   249   000085                     uart_init@y:
   250                           	callstack 0
   251                           
   252                           ; 4 bytes @ 0x25
   253   000085                     	ds	4
   254   000089                     uart_init@z:
   255                           	callstack 0
   256                           
   257                           ; 4 bytes @ 0x29
   258   000089                     	ds	4
   259   00008D                     _uart_init$918:
   260                           	callstack 0
   261                           
   262                           ; 4 bytes @ 0x2D
   263   00008D                     	ds	4
   264   000091                     uart_init@frequency:
   265                           	callstack 0
   266                           
   267                           ; 4 bytes @ 0x31
   268   000091                     	ds	4
   269   000095                     uart_init@baudrate:
   270                           	callstack 0
   271                           
   272                           ; 4 bytes @ 0x35
   273   000095                     	ds	4
   274   000099                     main@payload:
   275                           	callstack 0
   276                           
   277                           ; 1 bytes @ 0x39
   278   000099                     	ds	1
   279                           
   280                           	psect	cstackCOMRAM
   281   000001                     __pcstackCOMRAM:
   282                           	callstack 0
   283   000001                     ??_low_isr:
   284   000001                     
   285                           ; 2 bytes @ 0x0
   286   000001                     	ds	1
   287   000002                     ?___fpclassifyf:
   288                           	callstack 0
   289   000002                     ?___signbitf:
   290                           	callstack 0
   291   000002                     ?_uart_read:
   292                           	callstack 0
   293   000002                     ?___flmul:
   294                           	callstack 0
   295   000002                     ?___xxtofl:
   296                           	callstack 0
   297   000002                     lcd_set_bit@data_bit:
   298                           	callstack 0
   299   000002                     uart_write_buffer@data:
   300                           	callstack 0
   301   000002                     ___fleq@ff1:
   302                           	callstack 0
   303   000002                     ___flge@ff1:
   304                           	callstack 0
   305   000002                     ___flmul@b:
   306                           	callstack 0
   307   000002                     ___xxtofl@val:
   308                           	callstack 0
   309   000002                     ___fpclassifyf@x:
   310                           	callstack 0
   311   000002                     ___signbitf@x:
   312                           	callstack 0
   313                           
   314                           ; 4 bytes @ 0x1
   315   000002                     	ds	1
   316   000003                     ??_lcd_cmd:
   317   000003                     lcd_char@Lower_Nibble:
   318                           	callstack 0
   319   000003                     uart_write_buffer@length:
   320                           	callstack 0
   321                           
   322                           ; 2 bytes @ 0x2
   323   000003                     	ds	1
   324   000004                     lcd_cmd@a:
   325                           	callstack 0
   326   000004                     lcd_char@Upper_Nibble:
   327                           	callstack 0
   328   000004                     _uart_read$208:
   329                           	callstack 0
   330                           
   331                           ; 2 bytes @ 0x3
   332   000004                     	ds	1
   333   000005                     ??_lcd_init:
   334   000005                     ??_uart_write_buffer:
   335   000005                     lcd_set_cursor@b:
   336                           	callstack 0
   337   000005                     lcd_char@data:
   338                           	callstack 0
   339                           
   340                           ; 1 bytes @ 0x4
   341   000005                     	ds	1
   342   000006                     ??___fpclassifyf:
   343   000006                     ??___signbitf:
   344   000006                     ??___xxtofl:
   345   000006                     lcd_set_cursor@a:
   346                           	callstack 0
   347   000006                     uart_read@receivedData:
   348                           	callstack 0
   349   000006                     lcd_char@i:
   350                           	callstack 0
   351   000006                     ___fleq@ff2:
   352                           	callstack 0
   353   000006                     ___flge@ff2:
   354                           	callstack 0
   355   000006                     ___flmul@a:
   356                           	callstack 0
   357                           
   358                           ; 4 bytes @ 0x5
   359   000006                     	ds	1
   360   000007                     lcd_set_cursor@z:
   361                           	callstack 0
   362   000007                     uart_write_buffer@i:
   363                           	callstack 0
   364                           
   365                           ; 2 bytes @ 0x6
   366   000007                     	ds	1
   367   000008                     lcd_set_cursor@y:
   368                           	callstack 0
   369   000008                     lcd_char@i_172:
   370                           	callstack 0
   371                           
   372                           ; 2 bytes @ 0x7
   373   000008                     	ds	1
   374   000009                     lcd_set_cursor@temp:
   375                           	callstack 0
   376                           
   377                           ; 1 bytes @ 0x8
   378   000009                     	ds	1
   379   00000A                     ??___flmul:
   380   00000A                     ??___fleq:
   381   00000A                     ??___flge:
   382   00000A                     lcd_string@a:
   383                           	callstack 0
   384   00000A                     test@s:
   385                           	callstack 0
   386   00000A                     ___xxtofl@sign:
   387                           	callstack 0
   388   00000A                     ___fpclassifyf@e:
   389                           	callstack 0
   390   00000A                     ___signbitf@y:
   391                           	callstack 0
   392                           
   393                           ; 4 bytes @ 0x9
   394   00000A                     	ds	1
   395   00000B                     ??_lcd_string:
   396   00000B                     ___xxtofl@exp:
   397                           	callstack 0
   398                           
   399                           ; 1 bytes @ 0xA
   400   00000B                     	ds	1
   401   00000C                     lcd_string@i:
   402                           	callstack 0
   403   00000C                     ___xxtofl@arg:
   404                           	callstack 0
   405   00000C                     ___fpclassifyf@u:
   406                           	callstack 0
   407                           
   408                           ; 4 bytes @ 0xB
   409   00000C                     	ds	2
   410   00000E                     ___flmul@sign:
   411                           	callstack 0
   412                           
   413                           ; 1 bytes @ 0xD
   414   00000E                     	ds	1
   415   00000F                     ___flmul@grs:
   416                           	callstack 0
   417                           
   418                           ; 4 bytes @ 0xE
   419   00000F                     	ds	1
   420   000010                     ?_fminf:
   421                           	callstack 0
   422   000010                     fminf@x:
   423                           	callstack 0
   424                           
   425                           ; 4 bytes @ 0xF
   426   000010                     	ds	3
   427   000013                     ___flmul@aexp:
   428                           	callstack 0
   429                           
   430                           ; 1 bytes @ 0x12
   431   000013                     	ds	1
   432   000014                     ___flmul@bexp:
   433                           	callstack 0
   434   000014                     fminf@y:
   435                           	callstack 0
   436                           
   437                           ; 4 bytes @ 0x13
   438   000014                     	ds	1
   439   000015                     ___flmul@prod:
   440                           	callstack 0
   441                           
   442                           ; 4 bytes @ 0x14
   443   000015                     	ds	3
   444   000018                     ??_fminf:
   445                           
   446                           ; 1 bytes @ 0x17
   447   000018                     	ds	1
   448   000019                     ___flmul@temp:
   449                           	callstack 0
   450                           
   451                           ; 2 bytes @ 0x18
   452   000019                     	ds	2
   453   00001B                     ?___fldiv:
   454                           	callstack 0
   455   00001B                     ___fldiv@b:
   456                           	callstack 0
   457                           
   458                           ; 4 bytes @ 0x1A
   459   00001B                     	ds	4
   460   00001F                     ___fldiv@a:
   461                           	callstack 0
   462                           
   463                           ; 4 bytes @ 0x1E
   464   00001F                     	ds	4
   465   000023                     ??___fldiv:
   466                           
   467                           ; 1 bytes @ 0x22
   468   000023                     	ds	4
   469   000027                     ___fldiv@rem:
   470                           	callstack 0
   471                           
   472                           ; 4 bytes @ 0x26
   473   000027                     	ds	4
   474   00002B                     ___fldiv@sign:
   475                           	callstack 0
   476                           
   477                           ; 1 bytes @ 0x2A
   478   00002B                     	ds	1
   479   00002C                     ___fldiv@new_exp:
   480                           	callstack 0
   481                           
   482                           ; 2 bytes @ 0x2B
   483   00002C                     	ds	2
   484   00002E                     ___fldiv@grs:
   485                           	callstack 0
   486                           
   487                           ; 4 bytes @ 0x2D
   488   00002E                     	ds	4
   489   000032                     ___fldiv@bexp:
   490                           	callstack 0
   491                           
   492                           ; 1 bytes @ 0x31
   493   000032                     	ds	1
   494   000033                     ___fldiv@aexp:
   495                           	callstack 0
   496                           
   497                           ; 1 bytes @ 0x32
   498   000033                     	ds	1
   499   000034                     ?___fladd:
   500                           	callstack 0
   501   000034                     ___fladd@b:
   502                           	callstack 0
   503                           
   504                           ; 4 bytes @ 0x33
   505   000034                     	ds	4
   506   000038                     ___fladd@a:
   507                           	callstack 0
   508                           
   509                           ; 4 bytes @ 0x37
   510   000038                     	ds	4
   511   00003C                     ??___fladd:
   512                           
   513                           ; 1 bytes @ 0x3B
   514   00003C                     	ds	4
   515   000040                     ___fladd@signs:
   516                           	callstack 0
   517                           
   518                           ; 1 bytes @ 0x3F
   519   000040                     	ds	1
   520   000041                     ___fladd@aexp:
   521                           	callstack 0
   522                           
   523                           ; 1 bytes @ 0x40
   524   000041                     	ds	1
   525   000042                     ___fladd@bexp:
   526                           	callstack 0
   527                           
   528                           ; 1 bytes @ 0x41
   529   000042                     	ds	1
   530   000043                     ___fladd@grs:
   531                           	callstack 0
   532                           
   533                           ; 1 bytes @ 0x42
   534   000043                     	ds	1
   535   000044                     ?___flsub:
   536                           	callstack 0
   537   000044                     ?___fltol:
   538                           	callstack 0
   539   000044                     ___fltol@f1:
   540                           	callstack 0
   541   000044                     ___flsub@b:
   542                           	callstack 0
   543                           
   544                           ; 4 bytes @ 0x43
   545   000044                     	ds	4
   546   000048                     ??___fltol:
   547   000048                     ___flsub@a:
   548                           	callstack 0
   549                           
   550                           ; 4 bytes @ 0x47
   551   000048                     	ds	4
   552   00004C                     ?_fabsf:
   553                           	callstack 0
   554   00004C                     ___fltol@sign1:
   555                           	callstack 0
   556   00004C                     fabsf@x:
   557                           	callstack 0
   558                           
   559                           ; 4 bytes @ 0x4B
   560   00004C                     	ds	1
   561   00004D                     ___fltol@exp1:
   562                           	callstack 0
   563                           
   564                           ; 1 bytes @ 0x4C
   565   00004D                     	ds	3
   566   000050                     fabsf@u:
   567                           	callstack 0
   568                           
   569                           ; 4 bytes @ 0x4F
   570   000050                     	ds	4
   571   000054                     uart_init@BAUDRATE:
   572                           	callstack 0
   573                           
   574                           ; 4 bytes @ 0x53
   575   000054                     	ds	4
   576   000058                     ??_uart_init:
   577                           
   578                           ; 1 bytes @ 0x57
   579   000058                     	ds	4
   580   00005C                     ??_main:
   581                           
   582                           ; 1 bytes @ 0x5B
   583   00005C                     	ds	2
   584                           
   585 ;;
   586 ;;Main: autosize = 0, tempsize = 2, incstack = 0, save=0
   587 ;;
   588 ;; *************** function _main *****************
   589 ;; Defined at:
   590 ;;		line 15 in file "tx_main.c"
   591 ;; Parameters:    Size  Location     Type
   592 ;;		None
   593 ;; Auto vars:     Size  Location     Type
   594 ;;  payload         1   57[BANK0 ] unsigned char 
   595 ;; Return value:  Size  Location     Type
   596 ;;                  1    wreg      void 
   597 ;; Registers used:
   598 ;;		wreg, fsr2l, fsr2h, status,2, status,0, tblptrl, tblptrh, tblptru, prodl, prodh, cstack
   599 ;; Tracked objects:
   600 ;;		On entry : 0/0
   601 ;;		On exit  : 0/0
   602 ;;		Unchanged: 0/0
   603 ;; Data sizes:     COMRAM   BANK0   BANK1   BANK2   BANK3   BANK4   BANK5   BANK6   BANK7
   604 ;;      Params:         0       0       0       0       0       0       0       0       0
   605 ;;      Locals:         0       1       0       0       0       0       0       0       0
   606 ;;      Temps:          2       0       0       0       0       0       0       0       0
   607 ;;      Totals:         2       1       0       0       0       0       0       0       0
   608 ;;Total ram usage:        3 bytes
   609 ;; Hardware stack levels required when called: 4
   610 ;; This function calls:
   611 ;;		_lcd_clear
   612 ;;		_lcd_init
   613 ;;		_lcd_set_cursor
   614 ;;		_lcd_string
   615 ;;		_test
   616 ;;		_uart_init
   617 ;;		_uart_read
   618 ;;		_uart_write_buffer
   619 ;; This function is called by:
   620 ;;		Startup code after reset
   621 ;; This function uses a non-reentrant model
   622 ;;
   623                           
   624                           	psect	text0
   625   002C00                     __ptext0:
   626                           	callstack 0
   627   002C00                     _main:
   628                           	callstack 27
   629   002C00                     
   630                           ;tx_main.c: 16:     TRISD = 0;
   631   002C00  0E00               	movlw	0
   632   002C02  6E95               	movwf	149,c	;volatile
   633                           
   634                           ;tx_main.c: 17:     LATD = 0;
   635   002C04  0E00               	movlw	0
   636   002C06  6E8C               	movwf	140,c	;volatile
   637   002C08                     
   638                           ;tx_main.c: 19:     lcd_init();
   639   002C08  ECF0  F016         	call	_lcd_init	;wreg free
   640   002C0C                     
   641                           ;tx_main.c: 20:     lcd_set_cursor(1,1);
   642   002C0C  0E01               	movlw	1
   643   002C0E  6E05               	movwf	lcd_set_cursor@b^0,c
   644   002C10  0E01               	movlw	1
   645   002C12  ECBD  F016         	call	_lcd_set_cursor
   646   002C16                     
   647                           ;tx_main.c: 21:     lcd_clear();
   648   002C16  EC04  F018         	call	_lcd_clear	;wreg free
   649   002C1A                     
   650                           ;tx_main.c: 22:     lcd_string("TX: ");
   651   002C1A  0E01               	movlw	low STR_1
   652   002C1C  6E0A               	movwf	lcd_string@a^0,c
   653   002C1E  EC9A  F017         	call	_lcd_string	;wreg free
   654   002C22                     
   655                           ;tx_main.c: 24:     uart_init(0x01, 9600);
   656   002C22  0E80               	movlw	128
   657   002C24  6E54               	movwf	uart_init@BAUDRATE^0,c
   658   002C26  0E25               	movlw	37
   659   002C28  6E55               	movwf	(uart_init@BAUDRATE+1)^0,c
   660   002C2A  0E00               	movlw	0
   661   002C2C  6E56               	movwf	(uart_init@BAUDRATE+2)^0,c
   662   002C2E  0E00               	movlw	0
   663   002C30  6E57               	movwf	(uart_init@BAUDRATE+3)^0,c
   664   002C32  0E01               	movlw	1
   665   002C34  EC04  F004         	call	_uart_init
   666   002C38                     
   667                           ;tx_main.c: 26:     _delay((unsigned long)((100)*(8000000/4000.0)));
   668   002C38  0E02               	movlw	2
   669   002C3A  6E5D               	movwf	(??_main+1)^0,c
   670   002C3C  0E04               	movlw	4
   671   002C3E  6E5C               	movwf	??_main^0,c
   672   002C40  0EBA               	movlw	186
   673   002C42                     u3387:
   674   002C42  2EE8               	decfsz	wreg,f,c
   675   002C44  D7FE               	bra	u3387
   676   002C46  2E5C               	decfsz	??_main^0,f,c
   677   002C48  D7FC               	bra	u3387
   678   002C4A  2E5D               	decfsz	(??_main+1)^0,f,c
   679   002C4C  D7FA               	bra	u3387
   680   002C4E  D000               	nop2	
   681   002C50                     l2758:
   682                           
   683                           ;tx_main.c: 29:         uart_write_buffer(payload, 5);
   684   002C50  0EA6               	movlw	low _payload
   685   002C52  6E02               	movwf	uart_write_buffer@data^0,c
   686   002C54  0E00               	movlw	0
   687   002C56  6E04               	movwf	(uart_write_buffer@length+1)^0,c
   688   002C58  0E05               	movlw	5
   689   002C5A  6E03               	movwf	uart_write_buffer@length^0,c
   690   002C5C  ECB2  F015         	call	_uart_write_buffer	;wreg free
   691   002C60                     
   692                           ;tx_main.c: 30:         char payload = uart_read();
   693   002C60  EC86  F016         	call	_uart_read	;wreg free
   694   002C64  5002               	movf	?_uart_read^0,w,c
   695   002C66  0100               	movlb	0	; () banked
   696   002C68  6F99               	movwf	main@payload& (0+255),b
   697   002C6A                     
   698                           ; BSR set to: 0
   699                           ;tx_main.c: 31:         test(payload);
   700   002C6A  5199               	movf	main@payload& (0+255),w,b
   701   002C6C  EC10  F018         	call	_test
   702   002C70                     
   703                           ;tx_main.c: 32:         _delay((unsigned long)((2000)*(8000000/4000.0)));
   704   002C70  0E15               	movlw	21
   705   002C72  6E5D               	movwf	(??_main+1)^0,c
   706   002C74  0E4B               	movlw	75
   707   002C76  6E5C               	movwf	??_main^0,c
   708   002C78  0EBE               	movlw	190
   709   002C7A                     u3397:
   710   002C7A  2EE8               	decfsz	wreg,f,c
   711   002C7C  D7FE               	bra	u3397
   712   002C7E  2E5C               	decfsz	??_main^0,f,c
   713   002C80  D7FC               	bra	u3397
   714   002C82  2E5D               	decfsz	(??_main+1)^0,f,c
   715   002C84  D7FA               	bra	u3397
   716   002C86  D000               	nop2	
   717   002C88  EF28  F016         	goto	l2758
   718   002C8C  EF13  F000         	goto	start
   719   002C90                     __end_of_main:
   720                           	callstack 0
   721                           
   722 ;; *************** function _uart_write_buffer *****************
   723 ;; Defined at:
   724 ;;		line 155 in file "./uart.h"
   725 ;; Parameters:    Size  Location     Type
   726 ;;  data            1    1[COMRAM] PTR short 
   727 ;;		 -> payload(10), 
   728 ;;  length          2    2[COMRAM] int 
   729 ;; Auto vars:     Size  Location     Type
   730 ;;  i               2    6[COMRAM] int 
   731 ;; Return value:  Size  Location     Type
   732 ;;                  1    wreg      void 
   733 ;; Registers used:
   734 ;;		wreg, fsr2l, fsr2h, status,2, status,0, prodl, prodh
   735 ;; Tracked objects:
   736 ;;		On entry : 0/0
   737 ;;		On exit  : 0/0
   738 ;;		Unchanged: 0/0
   739 ;; Data sizes:     COMRAM   BANK0   BANK1   BANK2   BANK3   BANK4   BANK5   BANK6   BANK7
   740 ;;      Params:         3       0       0       0       0       0       0       0       0
   741 ;;      Locals:         2       0       0       0       0       0       0       0       0
   742 ;;      Temps:          2       0       0       0       0       0       0       0       0
   743 ;;      Totals:         7       0       0       0       0       0       0       0       0
   744 ;;Total ram usage:        7 bytes
   745 ;; Hardware stack levels used: 1
   746 ;; Hardware stack levels required when called: 1
   747 ;; This function calls:
   748 ;;		Nothing
   749 ;; This function is called by:
   750 ;;		_main
   751 ;; This function uses a non-reentrant model
   752 ;;
   753                           
   754                           	psect	text1
   755   002B64                     __ptext1:
   756                           	callstack 0
   757   002B64                     _uart_write_buffer:
   758                           	callstack 29
   759   002B64                     
   760                           ;./uart.h: 156:     for (int i = 0; i < length; i++) {
   761   002B64  0E00               	movlw	0
   762   002B66  6E08               	movwf	(uart_write_buffer@i+1)^0,c
   763   002B68  0E00               	movlw	0
   764   002B6A  6E07               	movwf	uart_write_buffer@i^0,c
   765   002B6C  EFE9  F015         	goto	l2710
   766   002B70                     l151:
   767                           
   768                           ;./uart.h: 157:         if (TX9) TX9D = data[i] >> 8;
   769   002B70  ACAC               	btfss	4012,6,c	;volatile
   770   002B72  EFBD  F015         	goto	u3271
   771   002B76  EFBF  F015         	goto	u3270
   772   002B7A                     u3271:
   773   002B7A  EFD8  F015         	goto	l152
   774   002B7E                     u3270:
   775   002B7E  5007               	movf	uart_write_buffer@i^0,w,c
   776   002B80  0D02               	mullw	2
   777   002B82  5002               	movf	uart_write_buffer@data^0,w,c
   778   002B84  24F3               	addwf	243,w,c
   779   002B86  6ED9               	movwf	fsr2l,c
   780   002B88  6ADA               	clrf	fsr2h,c
   781   002B8A  CFDE F005          	movff	postinc2,??_uart_write_buffer
   782   002B8E  CFDD F006          	movff	postdec2,??_uart_write_buffer+1
   783   002B92  C006  F005         	movff	??_uart_write_buffer+1,??_uart_write_buffer
   784   002B96  6A06               	clrf	(??_uart_write_buffer+1)^0,c
   785   002B98  BE05               	btfsc	??_uart_write_buffer^0,7,c
   786   002B9A  6806               	setf	(??_uart_write_buffer+1)^0,c
   787   002B9C  3005               	rrcf	??_uart_write_buffer^0,w,c
   788   002B9E  B0D8               	btfsc	status,0,c
   789   002BA0  EFD4  F015         	goto	u3281
   790   002BA4  EFD7  F015         	goto	u3280
   791   002BA8                     u3281:
   792   002BA8  80AC               	bsf	4012,0,c	;volatile
   793   002BAA  EFD8  F015         	goto	u3295
   794   002BAE                     u3280:
   795   002BAE  90AC               	bcf	4012,0,c	;volatile
   796   002BB0                     u3295:
   797   002BB0                     l152:
   798                           
   799                           ;./uart.h: 158:         TXREG = data[i];
   800   002BB0  5007               	movf	uart_write_buffer@i^0,w,c
   801   002BB2  0D02               	mullw	2
   802   002BB4  5002               	movf	uart_write_buffer@data^0,w,c
   803   002BB6  24F3               	addwf	243,w,c
   804   002BB8  6ED9               	movwf	fsr2l,c
   805   002BBA  6ADA               	clrf	fsr2h,c
   806   002BBC  50DF               	movf	indf2,w,c
   807   002BBE  6EAD               	movwf	173,c	;volatile
   808   002BC0                     l153:
   809   002BC0  A89E               	btfss	3998,4,c	;volatile
   810   002BC2  EFE5  F015         	goto	u3301
   811   002BC6  EFE7  F015         	goto	u3300
   812   002BCA                     u3301:
   813   002BCA  EFE0  F015         	goto	l153
   814   002BCE                     u3300:
   815   002BCE                     
   816                           ;./uart.h: 160:     }
   817   002BCE  4A07               	infsnz	uart_write_buffer@i^0,f,c
   818   002BD0  2A08               	incf	(uart_write_buffer@i+1)^0,f,c
   819   002BD2                     l2710:
   820   002BD2  5003               	movf	uart_write_buffer@length^0,w,c
   821   002BD4  5C07               	subwf	uart_write_buffer@i^0,w,c
   822   002BD6  5008               	movf	(uart_write_buffer@i+1)^0,w,c
   823   002BD8  0A80               	xorlw	128
   824   002BDA  6E05               	movwf	??_uart_write_buffer^0,c
   825   002BDC  5004               	movf	(uart_write_buffer@length+1)^0,w,c
   826   002BDE  0A80               	xorlw	128
   827   002BE0  5805               	subwfb	??_uart_write_buffer^0,w,c
   828   002BE2  A0D8               	btfss	status,0,c
   829   002BE4  EFF6  F015         	goto	u3311
   830   002BE8  EFF8  F015         	goto	u3310
   831   002BEC                     u3311:
   832   002BEC  EFB8  F015         	goto	l151
   833   002BF0                     u3310:
   834   002BF0                     l157:
   835   002BF0  A2AC               	btfss	4012,1,c	;volatile
   836   002BF2  EFFD  F015         	goto	u3321
   837   002BF6  EFFF  F015         	goto	u3320
   838   002BFA                     u3321:
   839   002BFA  EFF8  F015         	goto	l157
   840   002BFE                     u3320:
   841   002BFE  0012               	return		;funcret
   842   002C00                     __end_of_uart_write_buffer:
   843                           	callstack 0
   844                           
   845 ;; *************** function _uart_read *****************
   846 ;; Defined at:
   847 ;;		line 165 in file "./uart.h"
   848 ;; Parameters:    Size  Location     Type
   849 ;;		None
   850 ;; Auto vars:     Size  Location     Type
   851 ;;  receivedData    1    5[COMRAM] unsigned char 
   852 ;; Return value:  Size  Location     Type
   853 ;;                  2    1[COMRAM] short 
   854 ;; Registers used:
   855 ;;		wreg, status,2, status,0
   856 ;; Tracked objects:
   857 ;;		On entry : 0/0
   858 ;;		On exit  : 0/0
   859 ;;		Unchanged: 0/0
   860 ;; Data sizes:     COMRAM   BANK0   BANK1   BANK2   BANK3   BANK4   BANK5   BANK6   BANK7
   861 ;;      Params:         2       0       0       0       0       0       0       0       0
   862 ;;      Locals:         3       0       0       0       0       0       0       0       0
   863 ;;      Temps:          0       0       0       0       0       0       0       0       0
   864 ;;      Totals:         5       0       0       0       0       0       0       0       0
   865 ;;Total ram usage:        5 bytes
   866 ;; Hardware stack levels used: 1
   867 ;; Hardware stack levels required when called: 1
   868 ;; This function calls:
   869 ;;		Nothing
   870 ;; This function is called by:
   871 ;;		_main
   872 ;;		_uart_read_buffer
   873 ;; This function uses a non-reentrant model
   874 ;;
   875                           
   876                           	psect	text2
   877   002D0C                     __ptext2:
   878                           	callstack 0
   879   002D0C                     _uart_read:
   880                           	callstack 29
   881   002D0C                     l163:
   882   002D0C  AA9E               	btfss	3998,5,c	;volatile
   883   002D0E  EF8B  F016         	goto	u3331
   884   002D12  EF8D  F016         	goto	u3330
   885   002D16                     u3331:
   886   002D16  EF86  F016         	goto	l163
   887   002D1A                     u3330:
   888   002D1A                     
   889                           ;./uart.h: 168:     if (FERR) {
   890   002D1A  A4AB               	btfss	4011,2,c	;volatile
   891   002D1C  EF92  F016         	goto	u3341
   892   002D20  EF94  F016         	goto	u3340
   893   002D24                     u3341:
   894   002D24  EF9A  F016         	goto	l166
   895   002D28                     u3340:
   896   002D28  50AE               	movf	174,w,c	;volatile
   897   002D2A                     l2716:
   898                           
   899                           ;./uart.h: 170:         return 0x01FF;
   900   002D2A  0E01               	movlw	1
   901   002D2C  6E03               	movwf	(?_uart_read+1)^0,c
   902   002D2E  6802               	setf	?_uart_read^0,c
   903   002D30  EFBC  F016         	goto	l167
   904   002D34                     l166:
   905                           
   906                           ;./uart.h: 173:     if (OERR) {
   907   002D34  A2AB               	btfss	4011,1,c	;volatile
   908   002D36  EF9F  F016         	goto	u3351
   909   002D3A  EFA1  F016         	goto	u3350
   910   002D3E                     u3351:
   911   002D3E  EFA6  F016         	goto	l168
   912   002D42                     u3350:
   913   002D42  50AE               	movf	174,w,c	;volatile
   914                           
   915                           ;./uart.h: 175:         RCEN = 0;
   916   002D44  96C5               	bcf	4037,3,c	;volatile
   917                           
   918                           ;./uart.h: 176:         RCEN = 1;
   919   002D46  86C5               	bsf	4037,3,c	;volatile
   920   002D48  EF95  F016         	goto	l2716
   921   002D4C                     l168:
   922                           
   923                           ;./uart.h: 179:     receivedData = RX9D ? RCREG | 0x0100 : RCREG;
   924   002D4C  B0AB               	btfsc	4011,0,c	;volatile
   925   002D4E  EFAB  F016         	goto	u3361
   926   002D52  EFAD  F016         	goto	u3360
   927   002D56                     u3361:
   928   002D56  EFB2  F016         	goto	l2728
   929   002D5A                     u3360:
   930   002D5A  CFAE F004          	movff	4014,_uart_read$208	;volatile
   931   002D5E  6A05               	clrf	(_uart_read$208+1)^0,c
   932   002D60  EFB7  F016         	goto	l2730
   933   002D64                     l2728:
   934   002D64  0E00               	movlw	0
   935   002D66  10AE               	iorwf	174,w,c	;volatile
   936   002D68  6E04               	movwf	_uart_read$208^0,c
   937   002D6A  0E01               	movlw	1
   938   002D6C  6E05               	movwf	(_uart_read$208+1)^0,c
   939   002D6E                     l2730:
   940   002D6E  C004  F006         	movff	_uart_read$208,uart_read@receivedData
   941   002D72                     
   942                           ;./uart.h: 180:     return receivedData;
   943   002D72  C006  F002         	movff	uart_read@receivedData,?_uart_read
   944   002D76  6A03               	clrf	(?_uart_read+1)^0,c
   945   002D78                     l167:
   946   002D78  0012               	return		;funcret
   947   002D7A                     __end_of_uart_read:
   948                           	callstack 0
   949                           
   950 ;; *************** function _uart_init *****************
   951 ;; Defined at:
   952 ;;		line 24 in file "./uart.h"
   953 ;; Parameters:    Size  Location     Type
   954 ;;  config          1    wreg     unsigned char 
   955 ;;  BAUDRATE        4   83[COMRAM] unsigned long 
   956 ;; Auto vars:     Size  Location     Type
   957 ;;  config          1   16[BANK0 ] unsigned char 
   958 ;;  baudrate        4   53[BANK0 ] const 
   959 ;;  frequency       4   49[BANK0 ] const 
   960 ;;  z               4   41[BANK0 ] long 
   961 ;;  y               4   37[BANK0 ] long 
   962 ;;  e3              4   33[BANK0 ] long 
   963 ;;  e33             4   29[BANK0 ] long 
   964 ;;  e2              4   25[BANK0 ] long 
   965 ;;  x               4   21[BANK0 ] long 
   966 ;;  e22             4   17[BANK0 ] long 
   967 ;;  e1              4   12[BANK0 ] long 
   968 ;;  min             4    8[BANK0 ] long 
   969 ;;  e11             4    4[BANK0 ] long 
   970 ;; Return value:  Size  Location     Type
   971 ;;                  1    wreg      unsigned char 
   972 ;; Registers used:
   973 ;;		wreg, status,2, status,0, prodl, prodh, cstack
   974 ;; Tracked objects:
   975 ;;		On entry : 0/0
   976 ;;		On exit  : 0/0
   977 ;;		Unchanged: 0/0
   978 ;; Data sizes:     COMRAM   BANK0   BANK1   BANK2   BANK3   BANK4   BANK5   BANK6   BANK7
   979 ;;      Params:         4       0       0       0       0       0       0       0       0
   980 ;;      Locals:         0      57       0       0       0       0       0       0       0
   981 ;;      Temps:          4       0       0       0       0       0       0       0       0
   982 ;;      Totals:         8      57       0       0       0       0       0       0       0
   983 ;;Total ram usage:       65 bytes
   984 ;; Hardware stack levels used: 1
   985 ;; Hardware stack levels required when called: 3
   986 ;; This function calls:
   987 ;;		___fladd
   988 ;;		___fldiv
   989 ;;		___fleq
   990 ;;		___flge
   991 ;;		___flmul
   992 ;;		___flsub
   993 ;;		___fltol
   994 ;;		___xxtofl
   995 ;;		_fabsf
   996 ;;		_fminf
   997 ;; This function is called by:
   998 ;;		_main
   999 ;; This function uses a non-reentrant model
  1000 ;;
  1001                           
  1002                           	psect	text3
  1003   000808                     __ptext3:
  1004                           	callstack 0
  1005   000808                     _uart_init:
  1006                           	callstack 27
  1007                           
  1008                           ;incstack = 0
  1009                           ;uart_init@config stored from wreg
  1010   000808  0100               	movlb	0	; () banked
  1011   00080A  6F70               	movwf	uart_init@config& (0+255),b
  1012   00080C                     
  1013                           ;./uart.h: 27:     const double frequency = 8000000 + 0.0;
  1014   00080C  0E00               	movlw	0
  1015   00080E  0100               	movlb	0	; () banked
  1016   000810  6F91               	movwf	uart_init@frequency& (0+255),b
  1017   000812  0E24               	movlw	36
  1018   000814  6F92               	movwf	(uart_init@frequency+1)& (0+255),b
  1019   000816  0EF4               	movlw	244
  1020   000818  6F93               	movwf	(uart_init@frequency+2)& (0+255),b
  1021   00081A  0E4A               	movlw	74
  1022   00081C  6F94               	movwf	(uart_init@frequency+3)& (0+255),b
  1023   00081E                     
  1024                           ; BSR set to: 0
  1025                           ;./uart.h: 28:     const double baudrate = BAUDRATE + 0.0;
  1026   00081E  C054  F002         	movff	uart_init@BAUDRATE,___xxtofl@val
  1027   000822  C055  F003         	movff	uart_init@BAUDRATE+1,___xxtofl@val+1
  1028   000826  C056  F004         	movff	uart_init@BAUDRATE+2,___xxtofl@val+2
  1029   00082A  C057  F005         	movff	uart_init@BAUDRATE+3,___xxtofl@val+3
  1030   00082E  0E00               	movlw	0
  1031   000830  EC70  F012         	call	___xxtofl
  1032   000834  C002  F095         	movff	?___xxtofl,uart_init@baudrate
  1033   000838  C003  F096         	movff	?___xxtofl+1,uart_init@baudrate+1
  1034   00083C  C004  F097         	movff	?___xxtofl+2,uart_init@baudrate+2
  1035   000840  C005  F098         	movff	?___xxtofl+3,uart_init@baudrate+3
  1036   000844                     
  1037                           ;./uart.h: 29:     long x, y, z;;./uart.h: 30:     double e1, e11, e2, e22, e3, e33;;./u
      +                          art.h: 33:     x = (long) ((frequency / (64 * baudrate)) - 1);
  1038   000844  0E00               	movlw	0
  1039   000846  6E38               	movwf	___fladd@a^0,c
  1040   000848  0E00               	movlw	0
  1041   00084A  6E39               	movwf	(___fladd@a+1)^0,c
  1042   00084C  0E80               	movlw	128
  1043   00084E  6E3A               	movwf	(___fladd@a+2)^0,c
  1044   000850  0EBF               	movlw	191
  1045   000852  6E3B               	movwf	(___fladd@a+3)^0,c
  1046   000854  0E00               	movlw	0
  1047   000856  6E06               	movwf	___flmul@a^0,c
  1048   000858  0E00               	movlw	0
  1049   00085A  6E07               	movwf	(___flmul@a+1)^0,c
  1050   00085C  0E80               	movlw	128
  1051   00085E  6E08               	movwf	(___flmul@a+2)^0,c
  1052   000860  0E42               	movlw	66
  1053   000862  6E09               	movwf	(___flmul@a+3)^0,c
  1054   000864  C095  F002         	movff	uart_init@baudrate,___flmul@b
  1055   000868  C096  F003         	movff	uart_init@baudrate+1,___flmul@b+1
  1056   00086C  C097  F004         	movff	uart_init@baudrate+2,___flmul@b+2
  1057   000870  C098  F005         	movff	uart_init@baudrate+3,___flmul@b+3
  1058   000874  EC8E  F00E         	call	___flmul	;wreg free
  1059   000878  C002  F01F         	movff	?___flmul,___fldiv@a
  1060   00087C  C003  F020         	movff	?___flmul+1,___fldiv@a+1
  1061   000880  C004  F021         	movff	?___flmul+2,___fldiv@a+2
  1062   000884  C005  F022         	movff	?___flmul+3,___fldiv@a+3
  1063   000888  C091  F01B         	movff	uart_init@frequency,___fldiv@b
  1064   00088C  C092  F01C         	movff	uart_init@frequency+1,___fldiv@b+1
  1065   000890  C093  F01D         	movff	uart_init@frequency+2,___fldiv@b+2
  1066   000894  C094  F01E         	movff	uart_init@frequency+3,___fldiv@b+3
  1067   000898  ECA3  F010         	call	___fldiv	;wreg free
  1068   00089C  C01B  F034         	movff	?___fldiv,___fladd@b
  1069   0008A0  C01C  F035         	movff	?___fldiv+1,___fladd@b+1
  1070   0008A4  C01D  F036         	movff	?___fldiv+2,___fladd@b+2
  1071   0008A8  C01E  F037         	movff	?___fldiv+3,___fladd@b+3
  1072   0008AC  EC2E  F00C         	call	___fladd	;wreg free
  1073   0008B0  C034  F044         	movff	?___fladd,___fltol@f1
  1074   0008B4  C035  F045         	movff	?___fladd+1,___fltol@f1+1
  1075   0008B8  C036  F046         	movff	?___fladd+2,___fltol@f1+2
  1076   0008BC  C037  F047         	movff	?___fladd+3,___fltol@f1+3
  1077   0008C0  ECD9  F013         	call	___fltol	;wreg free
  1078   0008C4  C044  F075         	movff	?___fltol,uart_init@x
  1079   0008C8  C045  F076         	movff	?___fltol+1,uart_init@x+1
  1080   0008CC  C046  F077         	movff	?___fltol+2,uart_init@x+2
  1081   0008D0  C047  F078         	movff	?___fltol+3,uart_init@x+3
  1082   0008D4                     
  1083                           ;./uart.h: 34:     y = (long) ((frequency / (16 * baudrate)) - 1);
  1084   0008D4  0E00               	movlw	0
  1085   0008D6  6E38               	movwf	___fladd@a^0,c
  1086   0008D8  0E00               	movlw	0
  1087   0008DA  6E39               	movwf	(___fladd@a+1)^0,c
  1088   0008DC  0E80               	movlw	128
  1089   0008DE  6E3A               	movwf	(___fladd@a+2)^0,c
  1090   0008E0  0EBF               	movlw	191
  1091   0008E2  6E3B               	movwf	(___fladd@a+3)^0,c
  1092   0008E4  0E00               	movlw	0
  1093   0008E6  6E06               	movwf	___flmul@a^0,c
  1094   0008E8  0E00               	movlw	0
  1095   0008EA  6E07               	movwf	(___flmul@a+1)^0,c
  1096   0008EC  0E80               	movlw	128
  1097   0008EE  6E08               	movwf	(___flmul@a+2)^0,c
  1098   0008F0  0E41               	movlw	65
  1099   0008F2  6E09               	movwf	(___flmul@a+3)^0,c
  1100   0008F4  C095  F002         	movff	uart_init@baudrate,___flmul@b
  1101   0008F8  C096  F003         	movff	uart_init@baudrate+1,___flmul@b+1
  1102   0008FC  C097  F004         	movff	uart_init@baudrate+2,___flmul@b+2
  1103   000900  C098  F005         	movff	uart_init@baudrate+3,___flmul@b+3
  1104   000904  EC8E  F00E         	call	___flmul	;wreg free
  1105   000908  C002  F01F         	movff	?___flmul,___fldiv@a
  1106   00090C  C003  F020         	movff	?___flmul+1,___fldiv@a+1
  1107   000910  C004  F021         	movff	?___flmul+2,___fldiv@a+2
  1108   000914  C005  F022         	movff	?___flmul+3,___fldiv@a+3
  1109   000918  C091  F01B         	movff	uart_init@frequency,___fldiv@b
  1110   00091C  C092  F01C         	movff	uart_init@frequency+1,___fldiv@b+1
  1111   000920  C093  F01D         	movff	uart_init@frequency+2,___fldiv@b+2
  1112   000924  C094  F01E         	movff	uart_init@frequency+3,___fldiv@b+3
  1113   000928  ECA3  F010         	call	___fldiv	;wreg free
  1114   00092C  C01B  F034         	movff	?___fldiv,___fladd@b
  1115   000930  C01C  F035         	movff	?___fldiv+1,___fladd@b+1
  1116   000934  C01D  F036         	movff	?___fldiv+2,___fladd@b+2
  1117   000938  C01E  F037         	movff	?___fldiv+3,___fladd@b+3
  1118   00093C  EC2E  F00C         	call	___fladd	;wreg free
  1119   000940  C034  F044         	movff	?___fladd,___fltol@f1
  1120   000944  C035  F045         	movff	?___fladd+1,___fltol@f1+1
  1121   000948  C036  F046         	movff	?___fladd+2,___fltol@f1+2
  1122   00094C  C037  F047         	movff	?___fladd+3,___fltol@f1+3
  1123   000950  ECD9  F013         	call	___fltol	;wreg free
  1124   000954  C044  F085         	movff	?___fltol,uart_init@y
  1125   000958  C045  F086         	movff	?___fltol+1,uart_init@y+1
  1126   00095C  C046  F087         	movff	?___fltol+2,uart_init@y+2
  1127   000960  C047  F088         	movff	?___fltol+3,uart_init@y+3
  1128   000964                     
  1129                           ;./uart.h: 35:     z = (long) ((frequency / (4 * baudrate)) - 1);
  1130   000964  0E00               	movlw	0
  1131   000966  6E38               	movwf	___fladd@a^0,c
  1132   000968  0E00               	movlw	0
  1133   00096A  6E39               	movwf	(___fladd@a+1)^0,c
  1134   00096C  0E80               	movlw	128
  1135   00096E  6E3A               	movwf	(___fladd@a+2)^0,c
  1136   000970  0EBF               	movlw	191
  1137   000972  6E3B               	movwf	(___fladd@a+3)^0,c
  1138   000974  0E00               	movlw	0
  1139   000976  6E06               	movwf	___flmul@a^0,c
  1140   000978  0E00               	movlw	0
  1141   00097A  6E07               	movwf	(___flmul@a+1)^0,c
  1142   00097C  0E80               	movlw	128
  1143   00097E  6E08               	movwf	(___flmul@a+2)^0,c
  1144   000980  0E40               	movlw	64
  1145   000982  6E09               	movwf	(___flmul@a+3)^0,c
  1146   000984  C095  F002         	movff	uart_init@baudrate,___flmul@b
  1147   000988  C096  F003         	movff	uart_init@baudrate+1,___flmul@b+1
  1148   00098C  C097  F004         	movff	uart_init@baudrate+2,___flmul@b+2
  1149   000990  C098  F005         	movff	uart_init@baudrate+3,___flmul@b+3
  1150   000994  EC8E  F00E         	call	___flmul	;wreg free
  1151   000998  C002  F01F         	movff	?___flmul,___fldiv@a
  1152   00099C  C003  F020         	movff	?___flmul+1,___fldiv@a+1
  1153   0009A0  C004  F021         	movff	?___flmul+2,___fldiv@a+2
  1154   0009A4  C005  F022         	movff	?___flmul+3,___fldiv@a+3
  1155   0009A8  C091  F01B         	movff	uart_init@frequency,___fldiv@b
  1156   0009AC  C092  F01C         	movff	uart_init@frequency+1,___fldiv@b+1
  1157   0009B0  C093  F01D         	movff	uart_init@frequency+2,___fldiv@b+2
  1158   0009B4  C094  F01E         	movff	uart_init@frequency+3,___fldiv@b+3
  1159   0009B8  ECA3  F010         	call	___fldiv	;wreg free
  1160   0009BC  C01B  F034         	movff	?___fldiv,___fladd@b
  1161   0009C0  C01C  F035         	movff	?___fldiv+1,___fladd@b+1
  1162   0009C4  C01D  F036         	movff	?___fldiv+2,___fladd@b+2
  1163   0009C8  C01E  F037         	movff	?___fldiv+3,___fladd@b+3
  1164   0009CC  EC2E  F00C         	call	___fladd	;wreg free
  1165   0009D0  C034  F044         	movff	?___fladd,___fltol@f1
  1166   0009D4  C035  F045         	movff	?___fladd+1,___fltol@f1+1
  1167   0009D8  C036  F046         	movff	?___fladd+2,___fltol@f1+2
  1168   0009DC  C037  F047         	movff	?___fladd+3,___fltol@f1+3
  1169   0009E0  ECD9  F013         	call	___fltol	;wreg free
  1170   0009E4  C044  F089         	movff	?___fltol,uart_init@z
  1171   0009E8  C045  F08A         	movff	?___fltol+1,uart_init@z+1
  1172   0009EC  C046  F08B         	movff	?___fltol+2,uart_init@z+2
  1173   0009F0  C047  F08C         	movff	?___fltol+3,uart_init@z+3
  1174   0009F4                     
  1175                           ;./uart.h: 39:     if (x > 0) {
  1176   0009F4  0100               	movlb	0	; () banked
  1177   0009F6  BF78               	btfsc	(uart_init@x+3)& (0+255),7,b
  1178   0009F8  EF08  F005         	goto	u3001
  1179   0009FC  5178               	movf	(uart_init@x+3)& (0+255),w,b
  1180   0009FE  1177               	iorwf	(uart_init@x+2)& (0+255),w,b
  1181   000A00  1176               	iorwf	(uart_init@x+1)& (0+255),w,b
  1182   000A02  E108               	bnz	u3000
  1183   000A04  0575               	decf	uart_init@x& (0+255),w,b
  1184   000A06  A0D8               	btfss	status,0,c
  1185   000A08  EF08  F005         	goto	u3001
  1186   000A0C  EF0A  F005         	goto	u3000
  1187   000A10                     u3001:
  1188   000A10  EF6A  F008         	goto	l2670
  1189   000A14                     u3000:
  1190   000A14                     
  1191                           ; BSR set to: 0
  1192                           ;./uart.h: 40:         e1 = fabsf((frequency / (64 * (x + 1)) - baudrate) / baudrate);
  1193   000A14  C095  F048         	movff	uart_init@baudrate,___flsub@a
  1194   000A18  C096  F049         	movff	uart_init@baudrate+1,___flsub@a+1
  1195   000A1C  C097  F04A         	movff	uart_init@baudrate+2,___flsub@a+2
  1196   000A20  C098  F04B         	movff	uart_init@baudrate+3,___flsub@a+3
  1197   000A24  C075  F058         	movff	uart_init@x,??_uart_init
  1198   000A28  C076  F059         	movff	uart_init@x+1,??_uart_init+1
  1199   000A2C  C077  F05A         	movff	uart_init@x+2,??_uart_init+2
  1200   000A30  C078  F05B         	movff	uart_init@x+3,??_uart_init+3
  1201   000A34  0E06               	movlw	6
  1202   000A36                     u3015:
  1203   000A36  90D8               	bcf	status,0,c
  1204   000A38  3658               	rlcf	??_uart_init^0,f,c
  1205   000A3A  3659               	rlcf	(??_uart_init+1)^0,f,c
  1206   000A3C  365A               	rlcf	(??_uart_init+2)^0,f,c
  1207   000A3E  365B               	rlcf	(??_uart_init+3)^0,f,c
  1208   000A40  2EE8               	decfsz	wreg,f,c
  1209   000A42  EF1B  F005         	goto	u3015
  1210   000A46  0E40               	movlw	64
  1211   000A48  2458               	addwf	??_uart_init^0,w,c
  1212   000A4A  6E02               	movwf	___xxtofl@val^0,c
  1213   000A4C  0E00               	movlw	0
  1214   000A4E  2059               	addwfc	(??_uart_init+1)^0,w,c
  1215   000A50  6E03               	movwf	(___xxtofl@val+1)^0,c
  1216   000A52  0E00               	movlw	0
  1217   000A54  205A               	addwfc	(??_uart_init+2)^0,w,c
  1218   000A56  6E04               	movwf	(___xxtofl@val+2)^0,c
  1219   000A58  0E00               	movlw	0
  1220   000A5A  205B               	addwfc	(??_uart_init+3)^0,w,c
  1221   000A5C  6E05               	movwf	(___xxtofl@val+3)^0,c
  1222   000A5E  0E01               	movlw	1
  1223   000A60  EC70  F012         	call	___xxtofl
  1224   000A64  C002  F01F         	movff	?___xxtofl,___fldiv@a
  1225   000A68  C003  F020         	movff	?___xxtofl+1,___fldiv@a+1
  1226   000A6C  C004  F021         	movff	?___xxtofl+2,___fldiv@a+2
  1227   000A70  C005  F022         	movff	?___xxtofl+3,___fldiv@a+3
  1228   000A74  C091  F01B         	movff	uart_init@frequency,___fldiv@b
  1229   000A78  C092  F01C         	movff	uart_init@frequency+1,___fldiv@b+1
  1230   000A7C  C093  F01D         	movff	uart_init@frequency+2,___fldiv@b+2
  1231   000A80  C094  F01E         	movff	uart_init@frequency+3,___fldiv@b+3
  1232   000A84  ECA3  F010         	call	___fldiv	;wreg free
  1233   000A88  C01B  F044         	movff	?___fldiv,___flsub@b
  1234   000A8C  C01C  F045         	movff	?___fldiv+1,___flsub@b+1
  1235   000A90  C01D  F046         	movff	?___fldiv+2,___flsub@b+2
  1236   000A94  C01E  F047         	movff	?___fldiv+3,___flsub@b+3
  1237   000A98  EC77  F017         	call	___flsub	;wreg free
  1238   000A9C  C044  F08D         	movff	?___flsub,_uart_init$918
  1239   000AA0  C045  F08E         	movff	?___flsub+1,_uart_init$918+1
  1240   000AA4  C046  F08F         	movff	?___flsub+2,_uart_init$918+2
  1241   000AA8  C047  F090         	movff	?___flsub+3,_uart_init$918+3
  1242                           
  1243                           ;./uart.h: 40:         e1 = fabsf((frequency / (64 * (x + 1)) - baudrate) / baudrate);
  1244   000AAC  C08D  F01B         	movff	_uart_init$918,___fldiv@b
  1245   000AB0  C08E  F01C         	movff	_uart_init$918+1,___fldiv@b+1
  1246   000AB4  C08F  F01D         	movff	_uart_init$918+2,___fldiv@b+2
  1247   000AB8  C090  F01E         	movff	_uart_init$918+3,___fldiv@b+3
  1248   000ABC  C095  F01F         	movff	uart_init@baudrate,___fldiv@a
  1249   000AC0  C096  F020         	movff	uart_init@baudrate+1,___fldiv@a+1
  1250   000AC4  C097  F021         	movff	uart_init@baudrate+2,___fldiv@a+2
  1251   000AC8  C098  F022         	movff	uart_init@baudrate+3,___fldiv@a+3
  1252   000ACC  ECA3  F010         	call	___fldiv	;wreg free
  1253   000AD0  C01B  F04C         	movff	?___fldiv,fabsf@x
  1254   000AD4  C01C  F04D         	movff	?___fldiv+1,fabsf@x+1
  1255   000AD8  C01D  F04E         	movff	?___fldiv+2,fabsf@x+2
  1256   000ADC  C01E  F04F         	movff	?___fldiv+3,fabsf@x+3
  1257   000AE0  ECDA  F017         	call	_fabsf	;wreg free
  1258   000AE4  C04C  F06C         	movff	?_fabsf,uart_init@e1
  1259   000AE8  C04D  F06D         	movff	?_fabsf+1,uart_init@e1+1
  1260   000AEC  C04E  F06E         	movff	?_fabsf+2,uart_init@e1+2
  1261   000AF0  C04F  F06F         	movff	?_fabsf+3,uart_init@e1+3
  1262                           
  1263                           ;./uart.h: 41:         e11 = fabsf((frequency / (64 * (x + 1 + 1)) - baudrate) / baudrat
      +                          e);
  1264   000AF4  C095  F048         	movff	uart_init@baudrate,___flsub@a
  1265   000AF8  C096  F049         	movff	uart_init@baudrate+1,___flsub@a+1
  1266   000AFC  C097  F04A         	movff	uart_init@baudrate+2,___flsub@a+2
  1267   000B00  C098  F04B         	movff	uart_init@baudrate+3,___flsub@a+3
  1268   000B04  C075  F058         	movff	uart_init@x,??_uart_init
  1269   000B08  C076  F059         	movff	uart_init@x+1,??_uart_init+1
  1270   000B0C  C077  F05A         	movff	uart_init@x+2,??_uart_init+2
  1271   000B10  C078  F05B         	movff	uart_init@x+3,??_uart_init+3
  1272   000B14  0E06               	movlw	6
  1273   000B16                     u3025:
  1274   000B16  90D8               	bcf	status,0,c
  1275   000B18  3658               	rlcf	??_uart_init^0,f,c
  1276   000B1A  3659               	rlcf	(??_uart_init+1)^0,f,c
  1277   000B1C  365A               	rlcf	(??_uart_init+2)^0,f,c
  1278   000B1E  365B               	rlcf	(??_uart_init+3)^0,f,c
  1279   000B20  2EE8               	decfsz	wreg,f,c
  1280   000B22  EF8B  F005         	goto	u3025
  1281   000B26  0E80               	movlw	128
  1282   000B28  2458               	addwf	??_uart_init^0,w,c
  1283   000B2A  6E02               	movwf	___xxtofl@val^0,c
  1284   000B2C  0E00               	movlw	0
  1285   000B2E  2059               	addwfc	(??_uart_init+1)^0,w,c
  1286   000B30  6E03               	movwf	(___xxtofl@val+1)^0,c
  1287   000B32  0E00               	movlw	0
  1288   000B34  205A               	addwfc	(??_uart_init+2)^0,w,c
  1289   000B36  6E04               	movwf	(___xxtofl@val+2)^0,c
  1290   000B38  0E00               	movlw	0
  1291   000B3A  205B               	addwfc	(??_uart_init+3)^0,w,c
  1292   000B3C  6E05               	movwf	(___xxtofl@val+3)^0,c
  1293   000B3E  0E01               	movlw	1
  1294   000B40  EC70  F012         	call	___xxtofl
  1295   000B44  C002  F01F         	movff	?___xxtofl,___fldiv@a
  1296   000B48  C003  F020         	movff	?___xxtofl+1,___fldiv@a+1
  1297   000B4C  C004  F021         	movff	?___xxtofl+2,___fldiv@a+2
  1298   000B50  C005  F022         	movff	?___xxtofl+3,___fldiv@a+3
  1299   000B54  C091  F01B         	movff	uart_init@frequency,___fldiv@b
  1300   000B58  C092  F01C         	movff	uart_init@frequency+1,___fldiv@b+1
  1301   000B5C  C093  F01D         	movff	uart_init@frequency+2,___fldiv@b+2
  1302   000B60  C094  F01E         	movff	uart_init@frequency+3,___fldiv@b+3
  1303   000B64  ECA3  F010         	call	___fldiv	;wreg free
  1304   000B68  C01B  F044         	movff	?___fldiv,___flsub@b
  1305   000B6C  C01C  F045         	movff	?___fldiv+1,___flsub@b+1
  1306   000B70  C01D  F046         	movff	?___fldiv+2,___flsub@b+2
  1307   000B74  C01E  F047         	movff	?___fldiv+3,___flsub@b+3
  1308   000B78  EC77  F017         	call	___flsub	;wreg free
  1309   000B7C  C044  F08D         	movff	?___flsub,_uart_init$918
  1310   000B80  C045  F08E         	movff	?___flsub+1,_uart_init$918+1
  1311   000B84  C046  F08F         	movff	?___flsub+2,_uart_init$918+2
  1312   000B88  C047  F090         	movff	?___flsub+3,_uart_init$918+3
  1313                           
  1314                           ;./uart.h: 41:         e11 = fabsf((frequency / (64 * (x + 1 + 1)) - baudrate) / baudrat
      +                          e);
  1315   000B8C  C08D  F01B         	movff	_uart_init$918,___fldiv@b
  1316   000B90  C08E  F01C         	movff	_uart_init$918+1,___fldiv@b+1
  1317   000B94  C08F  F01D         	movff	_uart_init$918+2,___fldiv@b+2
  1318   000B98  C090  F01E         	movff	_uart_init$918+3,___fldiv@b+3
  1319   000B9C  C095  F01F         	movff	uart_init@baudrate,___fldiv@a
  1320   000BA0  C096  F020         	movff	uart_init@baudrate+1,___fldiv@a+1
  1321   000BA4  C097  F021         	movff	uart_init@baudrate+2,___fldiv@a+2
  1322   000BA8  C098  F022         	movff	uart_init@baudrate+3,___fldiv@a+3
  1323   000BAC  ECA3  F010         	call	___fldiv	;wreg free
  1324   000BB0  C01B  F04C         	movff	?___fldiv,fabsf@x
  1325   000BB4  C01C  F04D         	movff	?___fldiv+1,fabsf@x+1
  1326   000BB8  C01D  F04E         	movff	?___fldiv+2,fabsf@x+2
  1327   000BBC  C01E  F04F         	movff	?___fldiv+3,fabsf@x+3
  1328   000BC0  ECDA  F017         	call	_fabsf	;wreg free
  1329   000BC4  C04C  F064         	movff	?_fabsf,uart_init@e11
  1330   000BC8  C04D  F065         	movff	?_fabsf+1,uart_init@e11+1
  1331   000BCC  C04E  F066         	movff	?_fabsf+2,uart_init@e11+2
  1332   000BD0  C04F  F067         	movff	?_fabsf+3,uart_init@e11+3
  1333                           
  1334                           ;./uart.h: 42:         if (e11 < e1) {
  1335   000BD4  C064  F002         	movff	uart_init@e11,___flge@ff1
  1336   000BD8  C065  F003         	movff	uart_init@e11+1,___flge@ff1+1
  1337   000BDC  C066  F004         	movff	uart_init@e11+2,___flge@ff1+2
  1338   000BE0  C067  F005         	movff	uart_init@e11+3,___flge@ff1+3
  1339   000BE4  C06C  F006         	movff	uart_init@e1,___flge@ff2
  1340   000BE8  C06D  F007         	movff	uart_init@e1+1,___flge@ff2+1
  1341   000BEC  C06E  F008         	movff	uart_init@e1+2,___flge@ff2+2
  1342   000BF0  C06F  F009         	movff	uart_init@e1+3,___flge@ff2+3
  1343   000BF4  EC5C  F014         	call	___flge	;wreg free
  1344   000BF8  B0D8               	btfsc	status,0,c
  1345   000BFA  EF01  F006         	goto	u3031
  1346   000BFE  EF03  F006         	goto	u3030
  1347   000C02                     u3031:
  1348   000C02  EF18  F006         	goto	l2638
  1349   000C06                     u3030:
  1350   000C06                     
  1351                           ;./uart.h: 43:             e1 = e11;
  1352   000C06  C064  F06C         	movff	uart_init@e11,uart_init@e1
  1353   000C0A  C065  F06D         	movff	uart_init@e11+1,uart_init@e1+1
  1354   000C0E  C066  F06E         	movff	uart_init@e11+2,uart_init@e1+2
  1355   000C12  C067  F06F         	movff	uart_init@e11+3,uart_init@e1+3
  1356   000C16                     
  1357                           ;./uart.h: 44:             x = x + 1;
  1358   000C16  0E01               	movlw	1
  1359   000C18  0100               	movlb	0	; () banked
  1360   000C1A  2575               	addwf	uart_init@x& (0+255),w,b
  1361   000C1C  6F75               	movwf	uart_init@x& (0+255),b
  1362   000C1E  0E00               	movlw	0
  1363   000C20  2176               	addwfc	(uart_init@x+1)& (0+255),w,b
  1364   000C22  6F76               	movwf	(uart_init@x+1)& (0+255),b
  1365   000C24  0E00               	movlw	0
  1366   000C26  2177               	addwfc	(uart_init@x+2)& (0+255),w,b
  1367   000C28  6F77               	movwf	(uart_init@x+2)& (0+255),b
  1368   000C2A  0E00               	movlw	0
  1369   000C2C  2178               	addwfc	(uart_init@x+3)& (0+255),w,b
  1370   000C2E  6F78               	movwf	(uart_init@x+3)& (0+255),b
  1371   000C30                     l2638:
  1372                           
  1373                           ;./uart.h: 47:         e2 = fabsf((frequency / (16 * (y + 1)) - baudrate) / baudrate);
  1374   000C30  C095  F048         	movff	uart_init@baudrate,___flsub@a
  1375   000C34  C096  F049         	movff	uart_init@baudrate+1,___flsub@a+1
  1376   000C38  C097  F04A         	movff	uart_init@baudrate+2,___flsub@a+2
  1377   000C3C  C098  F04B         	movff	uart_init@baudrate+3,___flsub@a+3
  1378   000C40  C085  F058         	movff	uart_init@y,??_uart_init
  1379   000C44  C086  F059         	movff	uart_init@y+1,??_uart_init+1
  1380   000C48  C087  F05A         	movff	uart_init@y+2,??_uart_init+2
  1381   000C4C  C088  F05B         	movff	uart_init@y+3,??_uart_init+3
  1382   000C50  0E04               	movlw	4
  1383   000C52                     u3045:
  1384   000C52  90D8               	bcf	status,0,c
  1385   000C54  3658               	rlcf	??_uart_init^0,f,c
  1386   000C56  3659               	rlcf	(??_uart_init+1)^0,f,c
  1387   000C58  365A               	rlcf	(??_uart_init+2)^0,f,c
  1388   000C5A  365B               	rlcf	(??_uart_init+3)^0,f,c
  1389   000C5C  2EE8               	decfsz	wreg,f,c
  1390   000C5E  EF29  F006         	goto	u3045
  1391   000C62  0E10               	movlw	16
  1392   000C64  2458               	addwf	??_uart_init^0,w,c
  1393   000C66  6E02               	movwf	___xxtofl@val^0,c
  1394   000C68  0E00               	movlw	0
  1395   000C6A  2059               	addwfc	(??_uart_init+1)^0,w,c
  1396   000C6C  6E03               	movwf	(___xxtofl@val+1)^0,c
  1397   000C6E  0E00               	movlw	0
  1398   000C70  205A               	addwfc	(??_uart_init+2)^0,w,c
  1399   000C72  6E04               	movwf	(___xxtofl@val+2)^0,c
  1400   000C74  0E00               	movlw	0
  1401   000C76  205B               	addwfc	(??_uart_init+3)^0,w,c
  1402   000C78  6E05               	movwf	(___xxtofl@val+3)^0,c
  1403   000C7A  0E01               	movlw	1
  1404   000C7C  EC70  F012         	call	___xxtofl
  1405   000C80  C002  F01F         	movff	?___xxtofl,___fldiv@a
  1406   000C84  C003  F020         	movff	?___xxtofl+1,___fldiv@a+1
  1407   000C88  C004  F021         	movff	?___xxtofl+2,___fldiv@a+2
  1408   000C8C  C005  F022         	movff	?___xxtofl+3,___fldiv@a+3
  1409   000C90  C091  F01B         	movff	uart_init@frequency,___fldiv@b
  1410   000C94  C092  F01C         	movff	uart_init@frequency+1,___fldiv@b+1
  1411   000C98  C093  F01D         	movff	uart_init@frequency+2,___fldiv@b+2
  1412   000C9C  C094  F01E         	movff	uart_init@frequency+3,___fldiv@b+3
  1413   000CA0  ECA3  F010         	call	___fldiv	;wreg free
  1414   000CA4  C01B  F044         	movff	?___fldiv,___flsub@b
  1415   000CA8  C01C  F045         	movff	?___fldiv+1,___flsub@b+1
  1416   000CAC  C01D  F046         	movff	?___fldiv+2,___flsub@b+2
  1417   000CB0  C01E  F047         	movff	?___fldiv+3,___flsub@b+3
  1418   000CB4  EC77  F017         	call	___flsub	;wreg free
  1419   000CB8  C044  F08D         	movff	?___flsub,_uart_init$918
  1420   000CBC  C045  F08E         	movff	?___flsub+1,_uart_init$918+1
  1421   000CC0  C046  F08F         	movff	?___flsub+2,_uart_init$918+2
  1422   000CC4  C047  F090         	movff	?___flsub+3,_uart_init$918+3
  1423   000CC8                     
  1424                           ;./uart.h: 47:         e2 = fabsf((frequency / (16 * (y + 1)) - baudrate) / baudrate);
  1425   000CC8  C08D  F01B         	movff	_uart_init$918,___fldiv@b
  1426   000CCC  C08E  F01C         	movff	_uart_init$918+1,___fldiv@b+1
  1427   000CD0  C08F  F01D         	movff	_uart_init$918+2,___fldiv@b+2
  1428   000CD4  C090  F01E         	movff	_uart_init$918+3,___fldiv@b+3
  1429   000CD8  C095  F01F         	movff	uart_init@baudrate,___fldiv@a
  1430   000CDC  C096  F020         	movff	uart_init@baudrate+1,___fldiv@a+1
  1431   000CE0  C097  F021         	movff	uart_init@baudrate+2,___fldiv@a+2
  1432   000CE4  C098  F022         	movff	uart_init@baudrate+3,___fldiv@a+3
  1433   000CE8  ECA3  F010         	call	___fldiv	;wreg free
  1434   000CEC  C01B  F04C         	movff	?___fldiv,fabsf@x
  1435   000CF0  C01C  F04D         	movff	?___fldiv+1,fabsf@x+1
  1436   000CF4  C01D  F04E         	movff	?___fldiv+2,fabsf@x+2
  1437   000CF8  C01E  F04F         	movff	?___fldiv+3,fabsf@x+3
  1438   000CFC  ECDA  F017         	call	_fabsf	;wreg free
  1439   000D00  C04C  F079         	movff	?_fabsf,uart_init@e2
  1440   000D04  C04D  F07A         	movff	?_fabsf+1,uart_init@e2+1
  1441   000D08  C04E  F07B         	movff	?_fabsf+2,uart_init@e2+2
  1442   000D0C  C04F  F07C         	movff	?_fabsf+3,uart_init@e2+3
  1443   000D10                     
  1444                           ;./uart.h: 48:         e22 = fabsf((frequency / (16 * (y + 1 + 1)) - baudrate) / baudrat
      +                          e);
  1445   000D10  C095  F048         	movff	uart_init@baudrate,___flsub@a
  1446   000D14  C096  F049         	movff	uart_init@baudrate+1,___flsub@a+1
  1447   000D18  C097  F04A         	movff	uart_init@baudrate+2,___flsub@a+2
  1448   000D1C  C098  F04B         	movff	uart_init@baudrate+3,___flsub@a+3
  1449   000D20  C085  F058         	movff	uart_init@y,??_uart_init
  1450   000D24  C086  F059         	movff	uart_init@y+1,??_uart_init+1
  1451   000D28  C087  F05A         	movff	uart_init@y+2,??_uart_init+2
  1452   000D2C  C088  F05B         	movff	uart_init@y+3,??_uart_init+3
  1453   000D30  0E04               	movlw	4
  1454   000D32                     u3055:
  1455   000D32  90D8               	bcf	status,0,c
  1456   000D34  3658               	rlcf	??_uart_init^0,f,c
  1457   000D36  3659               	rlcf	(??_uart_init+1)^0,f,c
  1458   000D38  365A               	rlcf	(??_uart_init+2)^0,f,c
  1459   000D3A  365B               	rlcf	(??_uart_init+3)^0,f,c
  1460   000D3C  2EE8               	decfsz	wreg,f,c
  1461   000D3E  EF99  F006         	goto	u3055
  1462   000D42  0E20               	movlw	32
  1463   000D44  2458               	addwf	??_uart_init^0,w,c
  1464   000D46  6E02               	movwf	___xxtofl@val^0,c
  1465   000D48  0E00               	movlw	0
  1466   000D4A  2059               	addwfc	(??_uart_init+1)^0,w,c
  1467   000D4C  6E03               	movwf	(___xxtofl@val+1)^0,c
  1468   000D4E  0E00               	movlw	0
  1469   000D50  205A               	addwfc	(??_uart_init+2)^0,w,c
  1470   000D52  6E04               	movwf	(___xxtofl@val+2)^0,c
  1471   000D54  0E00               	movlw	0
  1472   000D56  205B               	addwfc	(??_uart_init+3)^0,w,c
  1473   000D58  6E05               	movwf	(___xxtofl@val+3)^0,c
  1474   000D5A  0E01               	movlw	1
  1475   000D5C  EC70  F012         	call	___xxtofl
  1476   000D60  C002  F01F         	movff	?___xxtofl,___fldiv@a
  1477   000D64  C003  F020         	movff	?___xxtofl+1,___fldiv@a+1
  1478   000D68  C004  F021         	movff	?___xxtofl+2,___fldiv@a+2
  1479   000D6C  C005  F022         	movff	?___xxtofl+3,___fldiv@a+3
  1480   000D70  C091  F01B         	movff	uart_init@frequency,___fldiv@b
  1481   000D74  C092  F01C         	movff	uart_init@frequency+1,___fldiv@b+1
  1482   000D78  C093  F01D         	movff	uart_init@frequency+2,___fldiv@b+2
  1483   000D7C  C094  F01E         	movff	uart_init@frequency+3,___fldiv@b+3
  1484   000D80  ECA3  F010         	call	___fldiv	;wreg free
  1485   000D84  C01B  F044         	movff	?___fldiv,___flsub@b
  1486   000D88  C01C  F045         	movff	?___fldiv+1,___flsub@b+1
  1487   000D8C  C01D  F046         	movff	?___fldiv+2,___flsub@b+2
  1488   000D90  C01E  F047         	movff	?___fldiv+3,___flsub@b+3
  1489   000D94  EC77  F017         	call	___flsub	;wreg free
  1490   000D98  C044  F08D         	movff	?___flsub,_uart_init$918
  1491   000D9C  C045  F08E         	movff	?___flsub+1,_uart_init$918+1
  1492   000DA0  C046  F08F         	movff	?___flsub+2,_uart_init$918+2
  1493   000DA4  C047  F090         	movff	?___flsub+3,_uart_init$918+3
  1494   000DA8                     
  1495                           ;./uart.h: 48:         e22 = fabsf((frequency / (16 * (y + 1 + 1)) - baudrate) / baudrat
      +                          e);
  1496   000DA8  C08D  F01B         	movff	_uart_init$918,___fldiv@b
  1497   000DAC  C08E  F01C         	movff	_uart_init$918+1,___fldiv@b+1
  1498   000DB0  C08F  F01D         	movff	_uart_init$918+2,___fldiv@b+2
  1499   000DB4  C090  F01E         	movff	_uart_init$918+3,___fldiv@b+3
  1500   000DB8  C095  F01F         	movff	uart_init@baudrate,___fldiv@a
  1501   000DBC  C096  F020         	movff	uart_init@baudrate+1,___fldiv@a+1
  1502   000DC0  C097  F021         	movff	uart_init@baudrate+2,___fldiv@a+2
  1503   000DC4  C098  F022         	movff	uart_init@baudrate+3,___fldiv@a+3
  1504   000DC8  ECA3  F010         	call	___fldiv	;wreg free
  1505   000DCC  C01B  F04C         	movff	?___fldiv,fabsf@x
  1506   000DD0  C01C  F04D         	movff	?___fldiv+1,fabsf@x+1
  1507   000DD4  C01D  F04E         	movff	?___fldiv+2,fabsf@x+2
  1508   000DD8  C01E  F04F         	movff	?___fldiv+3,fabsf@x+3
  1509   000DDC  ECDA  F017         	call	_fabsf	;wreg free
  1510   000DE0  C04C  F071         	movff	?_fabsf,uart_init@e22
  1511   000DE4  C04D  F072         	movff	?_fabsf+1,uart_init@e22+1
  1512   000DE8  C04E  F073         	movff	?_fabsf+2,uart_init@e22+2
  1513   000DEC  C04F  F074         	movff	?_fabsf+3,uart_init@e22+3
  1514   000DF0                     
  1515                           ;./uart.h: 49:         if (e22 < e2) {
  1516   000DF0  C071  F002         	movff	uart_init@e22,___flge@ff1
  1517   000DF4  C072  F003         	movff	uart_init@e22+1,___flge@ff1+1
  1518   000DF8  C073  F004         	movff	uart_init@e22+2,___flge@ff1+2
  1519   000DFC  C074  F005         	movff	uart_init@e22+3,___flge@ff1+3
  1520   000E00  C079  F006         	movff	uart_init@e2,___flge@ff2
  1521   000E04  C07A  F007         	movff	uart_init@e2+1,___flge@ff2+1
  1522   000E08  C07B  F008         	movff	uart_init@e2+2,___flge@ff2+2
  1523   000E0C  C07C  F009         	movff	uart_init@e2+3,___flge@ff2+3
  1524   000E10  EC5C  F014         	call	___flge	;wreg free
  1525   000E14  B0D8               	btfsc	status,0,c
  1526   000E16  EF0F  F007         	goto	u3061
  1527   000E1A  EF11  F007         	goto	u3060
  1528   000E1E                     u3061:
  1529   000E1E  EF26  F007         	goto	l2652
  1530   000E22                     u3060:
  1531   000E22                     
  1532                           ;./uart.h: 50:             e2 = e22;
  1533   000E22  C071  F079         	movff	uart_init@e22,uart_init@e2
  1534   000E26  C072  F07A         	movff	uart_init@e22+1,uart_init@e2+1
  1535   000E2A  C073  F07B         	movff	uart_init@e22+2,uart_init@e2+2
  1536   000E2E  C074  F07C         	movff	uart_init@e22+3,uart_init@e2+3
  1537   000E32                     
  1538                           ;./uart.h: 51:             y = y + 1;
  1539   000E32  0E01               	movlw	1
  1540   000E34  0100               	movlb	0	; () banked
  1541   000E36  2585               	addwf	uart_init@y& (0+255),w,b
  1542   000E38  6F85               	movwf	uart_init@y& (0+255),b
  1543   000E3A  0E00               	movlw	0
  1544   000E3C  2186               	addwfc	(uart_init@y+1)& (0+255),w,b
  1545   000E3E  6F86               	movwf	(uart_init@y+1)& (0+255),b
  1546   000E40  0E00               	movlw	0
  1547   000E42  2187               	addwfc	(uart_init@y+2)& (0+255),w,b
  1548   000E44  6F87               	movwf	(uart_init@y+2)& (0+255),b
  1549   000E46  0E00               	movlw	0
  1550   000E48  2188               	addwfc	(uart_init@y+3)& (0+255),w,b
  1551   000E4A  6F88               	movwf	(uart_init@y+3)& (0+255),b
  1552   000E4C                     l2652:
  1553                           
  1554                           ;./uart.h: 54:         e3 = fabsf((frequency / (4 * (z + 1)) - baudrate) / baudrate);
  1555   000E4C  C095  F048         	movff	uart_init@baudrate,___flsub@a
  1556   000E50  C096  F049         	movff	uart_init@baudrate+1,___flsub@a+1
  1557   000E54  C097  F04A         	movff	uart_init@baudrate+2,___flsub@a+2
  1558   000E58  C098  F04B         	movff	uart_init@baudrate+3,___flsub@a+3
  1559   000E5C  C089  F058         	movff	uart_init@z,??_uart_init
  1560   000E60  C08A  F059         	movff	uart_init@z+1,??_uart_init+1
  1561   000E64  C08B  F05A         	movff	uart_init@z+2,??_uart_init+2
  1562   000E68  C08C  F05B         	movff	uart_init@z+3,??_uart_init+3
  1563   000E6C  0E02               	movlw	2
  1564   000E6E                     u3075:
  1565   000E6E  90D8               	bcf	status,0,c
  1566   000E70  3658               	rlcf	??_uart_init^0,f,c
  1567   000E72  3659               	rlcf	(??_uart_init+1)^0,f,c
  1568   000E74  365A               	rlcf	(??_uart_init+2)^0,f,c
  1569   000E76  365B               	rlcf	(??_uart_init+3)^0,f,c
  1570   000E78  2EE8               	decfsz	wreg,f,c
  1571   000E7A  EF37  F007         	goto	u3075
  1572   000E7E  0E04               	movlw	4
  1573   000E80  2458               	addwf	??_uart_init^0,w,c
  1574   000E82  6E02               	movwf	___xxtofl@val^0,c
  1575   000E84  0E00               	movlw	0
  1576   000E86  2059               	addwfc	(??_uart_init+1)^0,w,c
  1577   000E88  6E03               	movwf	(___xxtofl@val+1)^0,c
  1578   000E8A  0E00               	movlw	0
  1579   000E8C  205A               	addwfc	(??_uart_init+2)^0,w,c
  1580   000E8E  6E04               	movwf	(___xxtofl@val+2)^0,c
  1581   000E90  0E00               	movlw	0
  1582   000E92  205B               	addwfc	(??_uart_init+3)^0,w,c
  1583   000E94  6E05               	movwf	(___xxtofl@val+3)^0,c
  1584   000E96  0E01               	movlw	1
  1585   000E98  EC70  F012         	call	___xxtofl
  1586   000E9C  C002  F01F         	movff	?___xxtofl,___fldiv@a
  1587   000EA0  C003  F020         	movff	?___xxtofl+1,___fldiv@a+1
  1588   000EA4  C004  F021         	movff	?___xxtofl+2,___fldiv@a+2
  1589   000EA8  C005  F022         	movff	?___xxtofl+3,___fldiv@a+3
  1590   000EAC  C091  F01B         	movff	uart_init@frequency,___fldiv@b
  1591   000EB0  C092  F01C         	movff	uart_init@frequency+1,___fldiv@b+1
  1592   000EB4  C093  F01D         	movff	uart_init@frequency+2,___fldiv@b+2
  1593   000EB8  C094  F01E         	movff	uart_init@frequency+3,___fldiv@b+3
  1594   000EBC  ECA3  F010         	call	___fldiv	;wreg free
  1595   000EC0  C01B  F044         	movff	?___fldiv,___flsub@b
  1596   000EC4  C01C  F045         	movff	?___fldiv+1,___flsub@b+1
  1597   000EC8  C01D  F046         	movff	?___fldiv+2,___flsub@b+2
  1598   000ECC  C01E  F047         	movff	?___fldiv+3,___flsub@b+3
  1599   000ED0  EC77  F017         	call	___flsub	;wreg free
  1600   000ED4  C044  F08D         	movff	?___flsub,_uart_init$918
  1601   000ED8  C045  F08E         	movff	?___flsub+1,_uart_init$918+1
  1602   000EDC  C046  F08F         	movff	?___flsub+2,_uart_init$918+2
  1603   000EE0  C047  F090         	movff	?___flsub+3,_uart_init$918+3
  1604   000EE4                     
  1605                           ;./uart.h: 54:         e3 = fabsf((frequency / (4 * (z + 1)) - baudrate) / baudrate);
  1606   000EE4  C08D  F01B         	movff	_uart_init$918,___fldiv@b
  1607   000EE8  C08E  F01C         	movff	_uart_init$918+1,___fldiv@b+1
  1608   000EEC  C08F  F01D         	movff	_uart_init$918+2,___fldiv@b+2
  1609   000EF0  C090  F01E         	movff	_uart_init$918+3,___fldiv@b+3
  1610   000EF4  C095  F01F         	movff	uart_init@baudrate,___fldiv@a
  1611   000EF8  C096  F020         	movff	uart_init@baudrate+1,___fldiv@a+1
  1612   000EFC  C097  F021         	movff	uart_init@baudrate+2,___fldiv@a+2
  1613   000F00  C098  F022         	movff	uart_init@baudrate+3,___fldiv@a+3
  1614   000F04  ECA3  F010         	call	___fldiv	;wreg free
  1615   000F08  C01B  F04C         	movff	?___fldiv,fabsf@x
  1616   000F0C  C01C  F04D         	movff	?___fldiv+1,fabsf@x+1
  1617   000F10  C01D  F04E         	movff	?___fldiv+2,fabsf@x+2
  1618   000F14  C01E  F04F         	movff	?___fldiv+3,fabsf@x+3
  1619   000F18  ECDA  F017         	call	_fabsf	;wreg free
  1620   000F1C  C04C  F081         	movff	?_fabsf,uart_init@e3
  1621   000F20  C04D  F082         	movff	?_fabsf+1,uart_init@e3+1
  1622   000F24  C04E  F083         	movff	?_fabsf+2,uart_init@e3+2
  1623   000F28  C04F  F084         	movff	?_fabsf+3,uart_init@e3+3
  1624   000F2C                     
  1625                           ;./uart.h: 55:         e33 = fabsf((frequency / (4 * (z + 1 + 1)) - baudrate) / baudrate
      +                          );
  1626   000F2C  C095  F048         	movff	uart_init@baudrate,___flsub@a
  1627   000F30  C096  F049         	movff	uart_init@baudrate+1,___flsub@a+1
  1628   000F34  C097  F04A         	movff	uart_init@baudrate+2,___flsub@a+2
  1629   000F38  C098  F04B         	movff	uart_init@baudrate+3,___flsub@a+3
  1630   000F3C  C089  F058         	movff	uart_init@z,??_uart_init
  1631   000F40  C08A  F059         	movff	uart_init@z+1,??_uart_init+1
  1632   000F44  C08B  F05A         	movff	uart_init@z+2,??_uart_init+2
  1633   000F48  C08C  F05B         	movff	uart_init@z+3,??_uart_init+3
  1634   000F4C  0E02               	movlw	2
  1635   000F4E                     u3085:
  1636   000F4E  90D8               	bcf	status,0,c
  1637   000F50  3658               	rlcf	??_uart_init^0,f,c
  1638   000F52  3659               	rlcf	(??_uart_init+1)^0,f,c
  1639   000F54  365A               	rlcf	(??_uart_init+2)^0,f,c
  1640   000F56  365B               	rlcf	(??_uart_init+3)^0,f,c
  1641   000F58  2EE8               	decfsz	wreg,f,c
  1642   000F5A  EFA7  F007         	goto	u3085
  1643   000F5E  0E08               	movlw	8
  1644   000F60  2458               	addwf	??_uart_init^0,w,c
  1645   000F62  6E02               	movwf	___xxtofl@val^0,c
  1646   000F64  0E00               	movlw	0
  1647   000F66  2059               	addwfc	(??_uart_init+1)^0,w,c
  1648   000F68  6E03               	movwf	(___xxtofl@val+1)^0,c
  1649   000F6A  0E00               	movlw	0
  1650   000F6C  205A               	addwfc	(??_uart_init+2)^0,w,c
  1651   000F6E  6E04               	movwf	(___xxtofl@val+2)^0,c
  1652   000F70  0E00               	movlw	0
  1653   000F72  205B               	addwfc	(??_uart_init+3)^0,w,c
  1654   000F74  6E05               	movwf	(___xxtofl@val+3)^0,c
  1655   000F76  0E01               	movlw	1
  1656   000F78  EC70  F012         	call	___xxtofl
  1657   000F7C  C002  F01F         	movff	?___xxtofl,___fldiv@a
  1658   000F80  C003  F020         	movff	?___xxtofl+1,___fldiv@a+1
  1659   000F84  C004  F021         	movff	?___xxtofl+2,___fldiv@a+2
  1660   000F88  C005  F022         	movff	?___xxtofl+3,___fldiv@a+3
  1661   000F8C  C091  F01B         	movff	uart_init@frequency,___fldiv@b
  1662   000F90  C092  F01C         	movff	uart_init@frequency+1,___fldiv@b+1
  1663   000F94  C093  F01D         	movff	uart_init@frequency+2,___fldiv@b+2
  1664   000F98  C094  F01E         	movff	uart_init@frequency+3,___fldiv@b+3
  1665   000F9C  ECA3  F010         	call	___fldiv	;wreg free
  1666   000FA0  C01B  F044         	movff	?___fldiv,___flsub@b
  1667   000FA4  C01C  F045         	movff	?___fldiv+1,___flsub@b+1
  1668   000FA8  C01D  F046         	movff	?___fldiv+2,___flsub@b+2
  1669   000FAC  C01E  F047         	movff	?___fldiv+3,___flsub@b+3
  1670   000FB0  EC77  F017         	call	___flsub	;wreg free
  1671   000FB4  C044  F08D         	movff	?___flsub,_uart_init$918
  1672   000FB8  C045  F08E         	movff	?___flsub+1,_uart_init$918+1
  1673   000FBC  C046  F08F         	movff	?___flsub+2,_uart_init$918+2
  1674   000FC0  C047  F090         	movff	?___flsub+3,_uart_init$918+3
  1675   000FC4                     
  1676                           ;./uart.h: 55:         e33 = fabsf((frequency / (4 * (z + 1 + 1)) - baudrate) / baudrate
      +                          );
  1677   000FC4  C08D  F01B         	movff	_uart_init$918,___fldiv@b
  1678   000FC8  C08E  F01C         	movff	_uart_init$918+1,___fldiv@b+1
  1679   000FCC  C08F  F01D         	movff	_uart_init$918+2,___fldiv@b+2
  1680   000FD0  C090  F01E         	movff	_uart_init$918+3,___fldiv@b+3
  1681   000FD4  C095  F01F         	movff	uart_init@baudrate,___fldiv@a
  1682   000FD8  C096  F020         	movff	uart_init@baudrate+1,___fldiv@a+1
  1683   000FDC  C097  F021         	movff	uart_init@baudrate+2,___fldiv@a+2
  1684   000FE0  C098  F022         	movff	uart_init@baudrate+3,___fldiv@a+3
  1685   000FE4  ECA3  F010         	call	___fldiv	;wreg free
  1686   000FE8  C01B  F04C         	movff	?___fldiv,fabsf@x
  1687   000FEC  C01C  F04D         	movff	?___fldiv+1,fabsf@x+1
  1688   000FF0  C01D  F04E         	movff	?___fldiv+2,fabsf@x+2
  1689   000FF4  C01E  F04F         	movff	?___fldiv+3,fabsf@x+3
  1690   000FF8  ECDA  F017         	call	_fabsf	;wreg free
  1691   000FFC  C04C  F07D         	movff	?_fabsf,uart_init@e33
  1692   001000  C04D  F07E         	movff	?_fabsf+1,uart_init@e33+1
  1693   001004  C04E  F07F         	movff	?_fabsf+2,uart_init@e33+2
  1694   001008  C04F  F080         	movff	?_fabsf+3,uart_init@e33+3
  1695   00100C                     
  1696                           ;./uart.h: 56:         if (e33 < e3) {
  1697   00100C  C07D  F002         	movff	uart_init@e33,___flge@ff1
  1698   001010  C07E  F003         	movff	uart_init@e33+1,___flge@ff1+1
  1699   001014  C07F  F004         	movff	uart_init@e33+2,___flge@ff1+2
  1700   001018  C080  F005         	movff	uart_init@e33+3,___flge@ff1+3
  1701   00101C  C081  F006         	movff	uart_init@e3,___flge@ff2
  1702   001020  C082  F007         	movff	uart_init@e3+1,___flge@ff2+1
  1703   001024  C083  F008         	movff	uart_init@e3+2,___flge@ff2+2
  1704   001028  C084  F009         	movff	uart_init@e3+3,___flge@ff2+3
  1705   00102C  EC5C  F014         	call	___flge	;wreg free
  1706   001030  B0D8               	btfsc	status,0,c
  1707   001032  EF1D  F008         	goto	u3091
  1708   001036  EF1F  F008         	goto	u3090
  1709   00103A                     u3091:
  1710   00103A  EF34  F008         	goto	l2666
  1711   00103E                     u3090:
  1712   00103E                     
  1713                           ;./uart.h: 57:             e3 = e33;
  1714   00103E  C07D  F081         	movff	uart_init@e33,uart_init@e3
  1715   001042  C07E  F082         	movff	uart_init@e33+1,uart_init@e3+1
  1716   001046  C07F  F083         	movff	uart_init@e33+2,uart_init@e3+2
  1717   00104A  C080  F084         	movff	uart_init@e33+3,uart_init@e3+3
  1718   00104E                     
  1719                           ;./uart.h: 58:             z = z + 1;
  1720   00104E  0E01               	movlw	1
  1721   001050  0100               	movlb	0	; () banked
  1722   001052  2589               	addwf	uart_init@z& (0+255),w,b
  1723   001054  6F89               	movwf	uart_init@z& (0+255),b
  1724   001056  0E00               	movlw	0
  1725   001058  218A               	addwfc	(uart_init@z+1)& (0+255),w,b
  1726   00105A  6F8A               	movwf	(uart_init@z+1)& (0+255),b
  1727   00105C  0E00               	movlw	0
  1728   00105E  218B               	addwfc	(uart_init@z+2)& (0+255),w,b
  1729   001060  6F8B               	movwf	(uart_init@z+2)& (0+255),b
  1730   001062  0E00               	movlw	0
  1731   001064  218C               	addwfc	(uart_init@z+3)& (0+255),w,b
  1732   001066  6F8C               	movwf	(uart_init@z+3)& (0+255),b
  1733   001068                     l2666:
  1734                           
  1735                           ;./uart.h: 61:         min = fminf(e1,fminf(e2,e3));
  1736   001068  C079  F010         	movff	uart_init@e2,fminf@x
  1737   00106C  C07A  F011         	movff	uart_init@e2+1,fminf@x+1
  1738   001070  C07B  F012         	movff	uart_init@e2+2,fminf@x+2
  1739   001074  C07C  F013         	movff	uart_init@e2+3,fminf@x+3
  1740   001078  C081  F014         	movff	uart_init@e3,fminf@y
  1741   00107C  C082  F015         	movff	uart_init@e3+1,fminf@y+1
  1742   001080  C083  F016         	movff	uart_init@e3+2,fminf@y+2
  1743   001084  C084  F017         	movff	uart_init@e3+3,fminf@y+3
  1744   001088  EC4A  F013         	call	_fminf	;wreg free
  1745   00108C  C010  F060         	movff	?_fminf,_uart_init$919
  1746   001090  C011  F061         	movff	?_fminf+1,_uart_init$919+1
  1747   001094  C012  F062         	movff	?_fminf+2,_uart_init$919+2
  1748   001098  C013  F063         	movff	?_fminf+3,_uart_init$919+3
  1749   00109C                     
  1750                           ;./uart.h: 61:         min = fminf(e1,fminf(e2,e3));
  1751   00109C  C06C  F010         	movff	uart_init@e1,fminf@x
  1752   0010A0  C06D  F011         	movff	uart_init@e1+1,fminf@x+1
  1753   0010A4  C06E  F012         	movff	uart_init@e1+2,fminf@x+2
  1754   0010A8  C06F  F013         	movff	uart_init@e1+3,fminf@x+3
  1755   0010AC  C060  F014         	movff	_uart_init$919,fminf@y
  1756   0010B0  C061  F015         	movff	_uart_init$919+1,fminf@y+1
  1757   0010B4  C062  F016         	movff	_uart_init$919+2,fminf@y+2
  1758   0010B8  C063  F017         	movff	_uart_init$919+3,fminf@y+3
  1759   0010BC  EC4A  F013         	call	_fminf	;wreg free
  1760   0010C0  C010  F068         	movff	?_fminf,uart_init@min
  1761   0010C4  C011  F069         	movff	?_fminf+1,uart_init@min+1
  1762   0010C8  C012  F06A         	movff	?_fminf+2,uart_init@min+2
  1763   0010CC  C013  F06B         	movff	?_fminf+3,uart_init@min+3
  1764                           
  1765                           ;./uart.h: 62:     } else if (y > 0) {
  1766   0010D0  EFAF  F00B         	goto	l2688
  1767   0010D4                     l2670:
  1768                           
  1769                           ; BSR set to: 0
  1770   0010D4  BF88               	btfsc	(uart_init@y+3)& (0+255),7,b
  1771   0010D6  EF77  F008         	goto	u3101
  1772   0010DA  5188               	movf	(uart_init@y+3)& (0+255),w,b
  1773   0010DC  1187               	iorwf	(uart_init@y+2)& (0+255),w,b
  1774   0010DE  1186               	iorwf	(uart_init@y+1)& (0+255),w,b
  1775   0010E0  E108               	bnz	u3100
  1776   0010E2  0585               	decf	uart_init@y& (0+255),w,b
  1777   0010E4  A0D8               	btfss	status,0,c
  1778   0010E6  EF77  F008         	goto	u3101
  1779   0010EA  EF79  F008         	goto	u3100
  1780   0010EE                     u3101:
  1781   0010EE  EF97  F00A         	goto	l2682
  1782   0010F2                     u3100:
  1783   0010F2                     
  1784                           ; BSR set to: 0
  1785                           ;./uart.h: 63:         e2 = fabsf((frequency / (16 * (y + 1)) - baudrate) / baudrate);
  1786   0010F2  C095  F048         	movff	uart_init@baudrate,___flsub@a
  1787   0010F6  C096  F049         	movff	uart_init@baudrate+1,___flsub@a+1
  1788   0010FA  C097  F04A         	movff	uart_init@baudrate+2,___flsub@a+2
  1789   0010FE  C098  F04B         	movff	uart_init@baudrate+3,___flsub@a+3
  1790   001102  C085  F058         	movff	uart_init@y,??_uart_init
  1791   001106  C086  F059         	movff	uart_init@y+1,??_uart_init+1
  1792   00110A  C087  F05A         	movff	uart_init@y+2,??_uart_init+2
  1793   00110E  C088  F05B         	movff	uart_init@y+3,??_uart_init+3
  1794   001112  0E04               	movlw	4
  1795   001114                     u3115:
  1796   001114  90D8               	bcf	status,0,c
  1797   001116  3658               	rlcf	??_uart_init^0,f,c
  1798   001118  3659               	rlcf	(??_uart_init+1)^0,f,c
  1799   00111A  365A               	rlcf	(??_uart_init+2)^0,f,c
  1800   00111C  365B               	rlcf	(??_uart_init+3)^0,f,c
  1801   00111E  2EE8               	decfsz	wreg,f,c
  1802   001120  EF8A  F008         	goto	u3115
  1803   001124  0E10               	movlw	16
  1804   001126  2458               	addwf	??_uart_init^0,w,c
  1805   001128  6E02               	movwf	___xxtofl@val^0,c
  1806   00112A  0E00               	movlw	0
  1807   00112C  2059               	addwfc	(??_uart_init+1)^0,w,c
  1808   00112E  6E03               	movwf	(___xxtofl@val+1)^0,c
  1809   001130  0E00               	movlw	0
  1810   001132  205A               	addwfc	(??_uart_init+2)^0,w,c
  1811   001134  6E04               	movwf	(___xxtofl@val+2)^0,c
  1812   001136  0E00               	movlw	0
  1813   001138  205B               	addwfc	(??_uart_init+3)^0,w,c
  1814   00113A  6E05               	movwf	(___xxtofl@val+3)^0,c
  1815   00113C  0E01               	movlw	1
  1816   00113E  EC70  F012         	call	___xxtofl
  1817   001142  C002  F01F         	movff	?___xxtofl,___fldiv@a
  1818   001146  C003  F020         	movff	?___xxtofl+1,___fldiv@a+1
  1819   00114A  C004  F021         	movff	?___xxtofl+2,___fldiv@a+2
  1820   00114E  C005  F022         	movff	?___xxtofl+3,___fldiv@a+3
  1821   001152  C091  F01B         	movff	uart_init@frequency,___fldiv@b
  1822   001156  C092  F01C         	movff	uart_init@frequency+1,___fldiv@b+1
  1823   00115A  C093  F01D         	movff	uart_init@frequency+2,___fldiv@b+2
  1824   00115E  C094  F01E         	movff	uart_init@frequency+3,___fldiv@b+3
  1825   001162  ECA3  F010         	call	___fldiv	;wreg free
  1826   001166  C01B  F044         	movff	?___fldiv,___flsub@b
  1827   00116A  C01C  F045         	movff	?___fldiv+1,___flsub@b+1
  1828   00116E  C01D  F046         	movff	?___fldiv+2,___flsub@b+2
  1829   001172  C01E  F047         	movff	?___fldiv+3,___flsub@b+3
  1830   001176  EC77  F017         	call	___flsub	;wreg free
  1831   00117A  C044  F08D         	movff	?___flsub,_uart_init$918
  1832   00117E  C045  F08E         	movff	?___flsub+1,_uart_init$918+1
  1833   001182  C046  F08F         	movff	?___flsub+2,_uart_init$918+2
  1834   001186  C047  F090         	movff	?___flsub+3,_uart_init$918+3
  1835                           
  1836                           ;./uart.h: 63:         e2 = fabsf((frequency / (16 * (y + 1)) - baudrate) / baudrate);
  1837   00118A  C08D  F01B         	movff	_uart_init$918,___fldiv@b
  1838   00118E  C08E  F01C         	movff	_uart_init$918+1,___fldiv@b+1
  1839   001192  C08F  F01D         	movff	_uart_init$918+2,___fldiv@b+2
  1840   001196  C090  F01E         	movff	_uart_init$918+3,___fldiv@b+3
  1841   00119A  C095  F01F         	movff	uart_init@baudrate,___fldiv@a
  1842   00119E  C096  F020         	movff	uart_init@baudrate+1,___fldiv@a+1
  1843   0011A2  C097  F021         	movff	uart_init@baudrate+2,___fldiv@a+2
  1844   0011A6  C098  F022         	movff	uart_init@baudrate+3,___fldiv@a+3
  1845   0011AA  ECA3  F010         	call	___fldiv	;wreg free
  1846   0011AE  C01B  F04C         	movff	?___fldiv,fabsf@x
  1847   0011B2  C01C  F04D         	movff	?___fldiv+1,fabsf@x+1
  1848   0011B6  C01D  F04E         	movff	?___fldiv+2,fabsf@x+2
  1849   0011BA  C01E  F04F         	movff	?___fldiv+3,fabsf@x+3
  1850   0011BE  ECDA  F017         	call	_fabsf	;wreg free
  1851   0011C2  C04C  F079         	movff	?_fabsf,uart_init@e2
  1852   0011C6  C04D  F07A         	movff	?_fabsf+1,uart_init@e2+1
  1853   0011CA  C04E  F07B         	movff	?_fabsf+2,uart_init@e2+2
  1854   0011CE  C04F  F07C         	movff	?_fabsf+3,uart_init@e2+3
  1855                           
  1856                           ;./uart.h: 64:         e22 = fabsf((frequency / (16 * (y + 1 + 1)) - baudrate) / baudrat
      +                          e);
  1857   0011D2  C095  F048         	movff	uart_init@baudrate,___flsub@a
  1858   0011D6  C096  F049         	movff	uart_init@baudrate+1,___flsub@a+1
  1859   0011DA  C097  F04A         	movff	uart_init@baudrate+2,___flsub@a+2
  1860   0011DE  C098  F04B         	movff	uart_init@baudrate+3,___flsub@a+3
  1861   0011E2  C085  F058         	movff	uart_init@y,??_uart_init
  1862   0011E6  C086  F059         	movff	uart_init@y+1,??_uart_init+1
  1863   0011EA  C087  F05A         	movff	uart_init@y+2,??_uart_init+2
  1864   0011EE  C088  F05B         	movff	uart_init@y+3,??_uart_init+3
  1865   0011F2  0E04               	movlw	4
  1866   0011F4                     u3125:
  1867   0011F4  90D8               	bcf	status,0,c
  1868   0011F6  3658               	rlcf	??_uart_init^0,f,c
  1869   0011F8  3659               	rlcf	(??_uart_init+1)^0,f,c
  1870   0011FA  365A               	rlcf	(??_uart_init+2)^0,f,c
  1871   0011FC  365B               	rlcf	(??_uart_init+3)^0,f,c
  1872   0011FE  2EE8               	decfsz	wreg,f,c
  1873   001200  EFFA  F008         	goto	u3125
  1874   001204  0E20               	movlw	32
  1875   001206  2458               	addwf	??_uart_init^0,w,c
  1876   001208  6E02               	movwf	___xxtofl@val^0,c
  1877   00120A  0E00               	movlw	0
  1878   00120C  2059               	addwfc	(??_uart_init+1)^0,w,c
  1879   00120E  6E03               	movwf	(___xxtofl@val+1)^0,c
  1880   001210  0E00               	movlw	0
  1881   001212  205A               	addwfc	(??_uart_init+2)^0,w,c
  1882   001214  6E04               	movwf	(___xxtofl@val+2)^0,c
  1883   001216  0E00               	movlw	0
  1884   001218  205B               	addwfc	(??_uart_init+3)^0,w,c
  1885   00121A  6E05               	movwf	(___xxtofl@val+3)^0,c
  1886   00121C  0E01               	movlw	1
  1887   00121E  EC70  F012         	call	___xxtofl
  1888   001222  C002  F01F         	movff	?___xxtofl,___fldiv@a
  1889   001226  C003  F020         	movff	?___xxtofl+1,___fldiv@a+1
  1890   00122A  C004  F021         	movff	?___xxtofl+2,___fldiv@a+2
  1891   00122E  C005  F022         	movff	?___xxtofl+3,___fldiv@a+3
  1892   001232  C091  F01B         	movff	uart_init@frequency,___fldiv@b
  1893   001236  C092  F01C         	movff	uart_init@frequency+1,___fldiv@b+1
  1894   00123A  C093  F01D         	movff	uart_init@frequency+2,___fldiv@b+2
  1895   00123E  C094  F01E         	movff	uart_init@frequency+3,___fldiv@b+3
  1896   001242  ECA3  F010         	call	___fldiv	;wreg free
  1897   001246  C01B  F044         	movff	?___fldiv,___flsub@b
  1898   00124A  C01C  F045         	movff	?___fldiv+1,___flsub@b+1
  1899   00124E  C01D  F046         	movff	?___fldiv+2,___flsub@b+2
  1900   001252  C01E  F047         	movff	?___fldiv+3,___flsub@b+3
  1901   001256  EC77  F017         	call	___flsub	;wreg free
  1902   00125A  C044  F08D         	movff	?___flsub,_uart_init$918
  1903   00125E  C045  F08E         	movff	?___flsub+1,_uart_init$918+1
  1904   001262  C046  F08F         	movff	?___flsub+2,_uart_init$918+2
  1905   001266  C047  F090         	movff	?___flsub+3,_uart_init$918+3
  1906                           
  1907                           ;./uart.h: 64:         e22 = fabsf((frequency / (16 * (y + 1 + 1)) - baudrate) / baudrat
      +                          e);
  1908   00126A  C08D  F01B         	movff	_uart_init$918,___fldiv@b
  1909   00126E  C08E  F01C         	movff	_uart_init$918+1,___fldiv@b+1
  1910   001272  C08F  F01D         	movff	_uart_init$918+2,___fldiv@b+2
  1911   001276  C090  F01E         	movff	_uart_init$918+3,___fldiv@b+3
  1912   00127A  C095  F01F         	movff	uart_init@baudrate,___fldiv@a
  1913   00127E  C096  F020         	movff	uart_init@baudrate+1,___fldiv@a+1
  1914   001282  C097  F021         	movff	uart_init@baudrate+2,___fldiv@a+2
  1915   001286  C098  F022         	movff	uart_init@baudrate+3,___fldiv@a+3
  1916   00128A  ECA3  F010         	call	___fldiv	;wreg free
  1917   00128E  C01B  F04C         	movff	?___fldiv,fabsf@x
  1918   001292  C01C  F04D         	movff	?___fldiv+1,fabsf@x+1
  1919   001296  C01D  F04E         	movff	?___fldiv+2,fabsf@x+2
  1920   00129A  C01E  F04F         	movff	?___fldiv+3,fabsf@x+3
  1921   00129E  ECDA  F017         	call	_fabsf	;wreg free
  1922   0012A2  C04C  F071         	movff	?_fabsf,uart_init@e22
  1923   0012A6  C04D  F072         	movff	?_fabsf+1,uart_init@e22+1
  1924   0012AA  C04E  F073         	movff	?_fabsf+2,uart_init@e22+2
  1925   0012AE  C04F  F074         	movff	?_fabsf+3,uart_init@e22+3
  1926                           
  1927                           ;./uart.h: 65:         if (e22 < e2) e2 = e22;
  1928   0012B2  C071  F002         	movff	uart_init@e22,___flge@ff1
  1929   0012B6  C072  F003         	movff	uart_init@e22+1,___flge@ff1+1
  1930   0012BA  C073  F004         	movff	uart_init@e22+2,___flge@ff1+2
  1931   0012BE  C074  F005         	movff	uart_init@e22+3,___flge@ff1+3
  1932   0012C2  C079  F006         	movff	uart_init@e2,___flge@ff2
  1933   0012C6  C07A  F007         	movff	uart_init@e2+1,___flge@ff2+1
  1934   0012CA  C07B  F008         	movff	uart_init@e2+2,___flge@ff2+2
  1935   0012CE  C07C  F009         	movff	uart_init@e2+3,___flge@ff2+3
  1936   0012D2  EC5C  F014         	call	___flge	;wreg free
  1937   0012D6  B0D8               	btfsc	status,0,c
  1938   0012D8  EF70  F009         	goto	u3131
  1939   0012DC  EF72  F009         	goto	u3130
  1940   0012E0                     u3131:
  1941   0012E0  EF7A  F009         	goto	l2676
  1942   0012E4                     u3130:
  1943   0012E4  C071  F079         	movff	uart_init@e22,uart_init@e2
  1944   0012E8  C072  F07A         	movff	uart_init@e22+1,uart_init@e2+1
  1945   0012EC  C073  F07B         	movff	uart_init@e22+2,uart_init@e2+2
  1946   0012F0  C074  F07C         	movff	uart_init@e22+3,uart_init@e2+3
  1947   0012F4                     l2676:
  1948                           
  1949                           ;./uart.h: 67:         e3 = fabsf((frequency / (4 * (z + 1)) - baudrate) / baudrate);
  1950   0012F4  C095  F048         	movff	uart_init@baudrate,___flsub@a
  1951   0012F8  C096  F049         	movff	uart_init@baudrate+1,___flsub@a+1
  1952   0012FC  C097  F04A         	movff	uart_init@baudrate+2,___flsub@a+2
  1953   001300  C098  F04B         	movff	uart_init@baudrate+3,___flsub@a+3
  1954   001304  C089  F058         	movff	uart_init@z,??_uart_init
  1955   001308  C08A  F059         	movff	uart_init@z+1,??_uart_init+1
  1956   00130C  C08B  F05A         	movff	uart_init@z+2,??_uart_init+2
  1957   001310  C08C  F05B         	movff	uart_init@z+3,??_uart_init+3
  1958   001314  0E02               	movlw	2
  1959   001316                     u3145:
  1960   001316  90D8               	bcf	status,0,c
  1961   001318  3658               	rlcf	??_uart_init^0,f,c
  1962   00131A  3659               	rlcf	(??_uart_init+1)^0,f,c
  1963   00131C  365A               	rlcf	(??_uart_init+2)^0,f,c
  1964   00131E  365B               	rlcf	(??_uart_init+3)^0,f,c
  1965   001320  2EE8               	decfsz	wreg,f,c
  1966   001322  EF8B  F009         	goto	u3145
  1967   001326  0E04               	movlw	4
  1968   001328  2458               	addwf	??_uart_init^0,w,c
  1969   00132A  6E02               	movwf	___xxtofl@val^0,c
  1970   00132C  0E00               	movlw	0
  1971   00132E  2059               	addwfc	(??_uart_init+1)^0,w,c
  1972   001330  6E03               	movwf	(___xxtofl@val+1)^0,c
  1973   001332  0E00               	movlw	0
  1974   001334  205A               	addwfc	(??_uart_init+2)^0,w,c
  1975   001336  6E04               	movwf	(___xxtofl@val+2)^0,c
  1976   001338  0E00               	movlw	0
  1977   00133A  205B               	addwfc	(??_uart_init+3)^0,w,c
  1978   00133C  6E05               	movwf	(___xxtofl@val+3)^0,c
  1979   00133E  0E01               	movlw	1
  1980   001340  EC70  F012         	call	___xxtofl
  1981   001344  C002  F01F         	movff	?___xxtofl,___fldiv@a
  1982   001348  C003  F020         	movff	?___xxtofl+1,___fldiv@a+1
  1983   00134C  C004  F021         	movff	?___xxtofl+2,___fldiv@a+2
  1984   001350  C005  F022         	movff	?___xxtofl+3,___fldiv@a+3
  1985   001354  C091  F01B         	movff	uart_init@frequency,___fldiv@b
  1986   001358  C092  F01C         	movff	uart_init@frequency+1,___fldiv@b+1
  1987   00135C  C093  F01D         	movff	uart_init@frequency+2,___fldiv@b+2
  1988   001360  C094  F01E         	movff	uart_init@frequency+3,___fldiv@b+3
  1989   001364  ECA3  F010         	call	___fldiv	;wreg free
  1990   001368  C01B  F044         	movff	?___fldiv,___flsub@b
  1991   00136C  C01C  F045         	movff	?___fldiv+1,___flsub@b+1
  1992   001370  C01D  F046         	movff	?___fldiv+2,___flsub@b+2
  1993   001374  C01E  F047         	movff	?___fldiv+3,___flsub@b+3
  1994   001378  EC77  F017         	call	___flsub	;wreg free
  1995   00137C  C044  F08D         	movff	?___flsub,_uart_init$918
  1996   001380  C045  F08E         	movff	?___flsub+1,_uart_init$918+1
  1997   001384  C046  F08F         	movff	?___flsub+2,_uart_init$918+2
  1998   001388  C047  F090         	movff	?___flsub+3,_uart_init$918+3
  1999                           
  2000                           ;./uart.h: 67:         e3 = fabsf((frequency / (4 * (z + 1)) - baudrate) / baudrate);
  2001   00138C  C08D  F01B         	movff	_uart_init$918,___fldiv@b
  2002   001390  C08E  F01C         	movff	_uart_init$918+1,___fldiv@b+1
  2003   001394  C08F  F01D         	movff	_uart_init$918+2,___fldiv@b+2
  2004   001398  C090  F01E         	movff	_uart_init$918+3,___fldiv@b+3
  2005   00139C  C095  F01F         	movff	uart_init@baudrate,___fldiv@a
  2006   0013A0  C096  F020         	movff	uart_init@baudrate+1,___fldiv@a+1
  2007   0013A4  C097  F021         	movff	uart_init@baudrate+2,___fldiv@a+2
  2008   0013A8  C098  F022         	movff	uart_init@baudrate+3,___fldiv@a+3
  2009   0013AC  ECA3  F010         	call	___fldiv	;wreg free
  2010   0013B0  C01B  F04C         	movff	?___fldiv,fabsf@x
  2011   0013B4  C01C  F04D         	movff	?___fldiv+1,fabsf@x+1
  2012   0013B8  C01D  F04E         	movff	?___fldiv+2,fabsf@x+2
  2013   0013BC  C01E  F04F         	movff	?___fldiv+3,fabsf@x+3
  2014   0013C0  ECDA  F017         	call	_fabsf	;wreg free
  2015   0013C4  C04C  F081         	movff	?_fabsf,uart_init@e3
  2016   0013C8  C04D  F082         	movff	?_fabsf+1,uart_init@e3+1
  2017   0013CC  C04E  F083         	movff	?_fabsf+2,uart_init@e3+2
  2018   0013D0  C04F  F084         	movff	?_fabsf+3,uart_init@e3+3
  2019                           
  2020                           ;./uart.h: 68:         e33 = fabsf((frequency / (4 * (z + 1 + 1)) - baudrate) / baudrate
      +                          );
  2021   0013D4  C095  F048         	movff	uart_init@baudrate,___flsub@a
  2022   0013D8  C096  F049         	movff	uart_init@baudrate+1,___flsub@a+1
  2023   0013DC  C097  F04A         	movff	uart_init@baudrate+2,___flsub@a+2
  2024   0013E0  C098  F04B         	movff	uart_init@baudrate+3,___flsub@a+3
  2025   0013E4  C089  F058         	movff	uart_init@z,??_uart_init
  2026   0013E8  C08A  F059         	movff	uart_init@z+1,??_uart_init+1
  2027   0013EC  C08B  F05A         	movff	uart_init@z+2,??_uart_init+2
  2028   0013F0  C08C  F05B         	movff	uart_init@z+3,??_uart_init+3
  2029   0013F4  0E02               	movlw	2
  2030   0013F6                     u3155:
  2031   0013F6  90D8               	bcf	status,0,c
  2032   0013F8  3658               	rlcf	??_uart_init^0,f,c
  2033   0013FA  3659               	rlcf	(??_uart_init+1)^0,f,c
  2034   0013FC  365A               	rlcf	(??_uart_init+2)^0,f,c
  2035   0013FE  365B               	rlcf	(??_uart_init+3)^0,f,c
  2036   001400  2EE8               	decfsz	wreg,f,c
  2037   001402  EFFB  F009         	goto	u3155
  2038   001406  0E08               	movlw	8
  2039   001408  2458               	addwf	??_uart_init^0,w,c
  2040   00140A  6E02               	movwf	___xxtofl@val^0,c
  2041   00140C  0E00               	movlw	0
  2042   00140E  2059               	addwfc	(??_uart_init+1)^0,w,c
  2043   001410  6E03               	movwf	(___xxtofl@val+1)^0,c
  2044   001412  0E00               	movlw	0
  2045   001414  205A               	addwfc	(??_uart_init+2)^0,w,c
  2046   001416  6E04               	movwf	(___xxtofl@val+2)^0,c
  2047   001418  0E00               	movlw	0
  2048   00141A  205B               	addwfc	(??_uart_init+3)^0,w,c
  2049   00141C  6E05               	movwf	(___xxtofl@val+3)^0,c
  2050   00141E  0E01               	movlw	1
  2051   001420  EC70  F012         	call	___xxtofl
  2052   001424  C002  F01F         	movff	?___xxtofl,___fldiv@a
  2053   001428  C003  F020         	movff	?___xxtofl+1,___fldiv@a+1
  2054   00142C  C004  F021         	movff	?___xxtofl+2,___fldiv@a+2
  2055   001430  C005  F022         	movff	?___xxtofl+3,___fldiv@a+3
  2056   001434  C091  F01B         	movff	uart_init@frequency,___fldiv@b
  2057   001438  C092  F01C         	movff	uart_init@frequency+1,___fldiv@b+1
  2058   00143C  C093  F01D         	movff	uart_init@frequency+2,___fldiv@b+2
  2059   001440  C094  F01E         	movff	uart_init@frequency+3,___fldiv@b+3
  2060   001444  ECA3  F010         	call	___fldiv	;wreg free
  2061   001448  C01B  F044         	movff	?___fldiv,___flsub@b
  2062   00144C  C01C  F045         	movff	?___fldiv+1,___flsub@b+1
  2063   001450  C01D  F046         	movff	?___fldiv+2,___flsub@b+2
  2064   001454  C01E  F047         	movff	?___fldiv+3,___flsub@b+3
  2065   001458  EC77  F017         	call	___flsub	;wreg free
  2066   00145C  C044  F08D         	movff	?___flsub,_uart_init$918
  2067   001460  C045  F08E         	movff	?___flsub+1,_uart_init$918+1
  2068   001464  C046  F08F         	movff	?___flsub+2,_uart_init$918+2
  2069   001468  C047  F090         	movff	?___flsub+3,_uart_init$918+3
  2070                           
  2071                           ;./uart.h: 68:         e33 = fabsf((frequency / (4 * (z + 1 + 1)) - baudrate) / baudrate
      +                          );
  2072   00146C  C08D  F01B         	movff	_uart_init$918,___fldiv@b
  2073   001470  C08E  F01C         	movff	_uart_init$918+1,___fldiv@b+1
  2074   001474  C08F  F01D         	movff	_uart_init$918+2,___fldiv@b+2
  2075   001478  C090  F01E         	movff	_uart_init$918+3,___fldiv@b+3
  2076   00147C  C095  F01F         	movff	uart_init@baudrate,___fldiv@a
  2077   001480  C096  F020         	movff	uart_init@baudrate+1,___fldiv@a+1
  2078   001484  C097  F021         	movff	uart_init@baudrate+2,___fldiv@a+2
  2079   001488  C098  F022         	movff	uart_init@baudrate+3,___fldiv@a+3
  2080   00148C  ECA3  F010         	call	___fldiv	;wreg free
  2081   001490  C01B  F04C         	movff	?___fldiv,fabsf@x
  2082   001494  C01C  F04D         	movff	?___fldiv+1,fabsf@x+1
  2083   001498  C01D  F04E         	movff	?___fldiv+2,fabsf@x+2
  2084   00149C  C01E  F04F         	movff	?___fldiv+3,fabsf@x+3
  2085   0014A0  ECDA  F017         	call	_fabsf	;wreg free
  2086   0014A4  C04C  F07D         	movff	?_fabsf,uart_init@e33
  2087   0014A8  C04D  F07E         	movff	?_fabsf+1,uart_init@e33+1
  2088   0014AC  C04E  F07F         	movff	?_fabsf+2,uart_init@e33+2
  2089   0014B0  C04F  F080         	movff	?_fabsf+3,uart_init@e33+3
  2090                           
  2091                           ;./uart.h: 69:         if (e33 < e3) e3 = e33;
  2092   0014B4  C07D  F002         	movff	uart_init@e33,___flge@ff1
  2093   0014B8  C07E  F003         	movff	uart_init@e33+1,___flge@ff1+1
  2094   0014BC  C07F  F004         	movff	uart_init@e33+2,___flge@ff1+2
  2095   0014C0  C080  F005         	movff	uart_init@e33+3,___flge@ff1+3
  2096   0014C4  C081  F006         	movff	uart_init@e3,___flge@ff2
  2097   0014C8  C082  F007         	movff	uart_init@e3+1,___flge@ff2+1
  2098   0014CC  C083  F008         	movff	uart_init@e3+2,___flge@ff2+2
  2099   0014D0  C084  F009         	movff	uart_init@e3+3,___flge@ff2+3
  2100   0014D4  EC5C  F014         	call	___flge	;wreg free
  2101   0014D8  B0D8               	btfsc	status,0,c
  2102   0014DA  EF71  F00A         	goto	u3161
  2103   0014DE  EF73  F00A         	goto	u3160
  2104   0014E2                     u3161:
  2105   0014E2  EF7B  F00A         	goto	l2680
  2106   0014E6                     u3160:
  2107   0014E6  C07D  F081         	movff	uart_init@e33,uart_init@e3
  2108   0014EA  C07E  F082         	movff	uart_init@e33+1,uart_init@e3+1
  2109   0014EE  C07F  F083         	movff	uart_init@e33+2,uart_init@e3+2
  2110   0014F2  C080  F084         	movff	uart_init@e33+3,uart_init@e3+3
  2111   0014F6                     l2680:
  2112                           
  2113                           ;./uart.h: 71:         min = fminf(e2,e3);
  2114   0014F6  C079  F010         	movff	uart_init@e2,fminf@x
  2115   0014FA  C07A  F011         	movff	uart_init@e2+1,fminf@x+1
  2116   0014FE  C07B  F012         	movff	uart_init@e2+2,fminf@x+2
  2117   001502  C07C  F013         	movff	uart_init@e2+3,fminf@x+3
  2118   001506  C081  F014         	movff	uart_init@e3,fminf@y
  2119   00150A  C082  F015         	movff	uart_init@e3+1,fminf@y+1
  2120   00150E  C083  F016         	movff	uart_init@e3+2,fminf@y+2
  2121   001512  C084  F017         	movff	uart_init@e3+3,fminf@y+3
  2122   001516  EC4A  F013         	call	_fminf	;wreg free
  2123   00151A  C010  F068         	movff	?_fminf,uart_init@min
  2124   00151E  C011  F069         	movff	?_fminf+1,uart_init@min+1
  2125   001522  C012  F06A         	movff	?_fminf+2,uart_init@min+2
  2126   001526  C013  F06B         	movff	?_fminf+3,uart_init@min+3
  2127                           
  2128                           ;./uart.h: 72:     } else if (z > 0) {
  2129   00152A  EFAF  F00B         	goto	l2688
  2130   00152E                     l2682:
  2131                           
  2132                           ; BSR set to: 0
  2133   00152E  BF8C               	btfsc	(uart_init@z+3)& (0+255),7,b
  2134   001530  EFA4  F00A         	goto	u3171
  2135   001534  518C               	movf	(uart_init@z+3)& (0+255),w,b
  2136   001536  118B               	iorwf	(uart_init@z+2)& (0+255),w,b
  2137   001538  118A               	iorwf	(uart_init@z+1)& (0+255),w,b
  2138   00153A  E108               	bnz	u3170
  2139   00153C  0589               	decf	uart_init@z& (0+255),w,b
  2140   00153E  A0D8               	btfss	status,0,c
  2141   001540  EFA4  F00A         	goto	u3171
  2142   001544  EFA6  F00A         	goto	u3170
  2143   001548                     u3171:
  2144   001548  EF2D  F00C         	goto	l125
  2145   00154C                     u3170:
  2146   00154C                     
  2147                           ; BSR set to: 0
  2148                           ;./uart.h: 73:         e3 = fabsf((frequency / (4 * (z + 1)) - baudrate) / baudrate);
  2149   00154C  C095  F048         	movff	uart_init@baudrate,___flsub@a
  2150   001550  C096  F049         	movff	uart_init@baudrate+1,___flsub@a+1
  2151   001554  C097  F04A         	movff	uart_init@baudrate+2,___flsub@a+2
  2152   001558  C098  F04B         	movff	uart_init@baudrate+3,___flsub@a+3
  2153   00155C  C089  F058         	movff	uart_init@z,??_uart_init
  2154   001560  C08A  F059         	movff	uart_init@z+1,??_uart_init+1
  2155   001564  C08B  F05A         	movff	uart_init@z+2,??_uart_init+2
  2156   001568  C08C  F05B         	movff	uart_init@z+3,??_uart_init+3
  2157   00156C  0E02               	movlw	2
  2158   00156E                     u3185:
  2159   00156E  90D8               	bcf	status,0,c
  2160   001570  3658               	rlcf	??_uart_init^0,f,c
  2161   001572  3659               	rlcf	(??_uart_init+1)^0,f,c
  2162   001574  365A               	rlcf	(??_uart_init+2)^0,f,c
  2163   001576  365B               	rlcf	(??_uart_init+3)^0,f,c
  2164   001578  2EE8               	decfsz	wreg,f,c
  2165   00157A  EFB7  F00A         	goto	u3185
  2166   00157E  0E04               	movlw	4
  2167   001580  2458               	addwf	??_uart_init^0,w,c
  2168   001582  6E02               	movwf	___xxtofl@val^0,c
  2169   001584  0E00               	movlw	0
  2170   001586  2059               	addwfc	(??_uart_init+1)^0,w,c
  2171   001588  6E03               	movwf	(___xxtofl@val+1)^0,c
  2172   00158A  0E00               	movlw	0
  2173   00158C  205A               	addwfc	(??_uart_init+2)^0,w,c
  2174   00158E  6E04               	movwf	(___xxtofl@val+2)^0,c
  2175   001590  0E00               	movlw	0
  2176   001592  205B               	addwfc	(??_uart_init+3)^0,w,c
  2177   001594  6E05               	movwf	(___xxtofl@val+3)^0,c
  2178   001596  0E01               	movlw	1
  2179   001598  EC70  F012         	call	___xxtofl
  2180   00159C  C002  F01F         	movff	?___xxtofl,___fldiv@a
  2181   0015A0  C003  F020         	movff	?___xxtofl+1,___fldiv@a+1
  2182   0015A4  C004  F021         	movff	?___xxtofl+2,___fldiv@a+2
  2183   0015A8  C005  F022         	movff	?___xxtofl+3,___fldiv@a+3
  2184   0015AC  C091  F01B         	movff	uart_init@frequency,___fldiv@b
  2185   0015B0  C092  F01C         	movff	uart_init@frequency+1,___fldiv@b+1
  2186   0015B4  C093  F01D         	movff	uart_init@frequency+2,___fldiv@b+2
  2187   0015B8  C094  F01E         	movff	uart_init@frequency+3,___fldiv@b+3
  2188   0015BC  ECA3  F010         	call	___fldiv	;wreg free
  2189   0015C0  C01B  F044         	movff	?___fldiv,___flsub@b
  2190   0015C4  C01C  F045         	movff	?___fldiv+1,___flsub@b+1
  2191   0015C8  C01D  F046         	movff	?___fldiv+2,___flsub@b+2
  2192   0015CC  C01E  F047         	movff	?___fldiv+3,___flsub@b+3
  2193   0015D0  EC77  F017         	call	___flsub	;wreg free
  2194   0015D4  C044  F08D         	movff	?___flsub,_uart_init$918
  2195   0015D8  C045  F08E         	movff	?___flsub+1,_uart_init$918+1
  2196   0015DC  C046  F08F         	movff	?___flsub+2,_uart_init$918+2
  2197   0015E0  C047  F090         	movff	?___flsub+3,_uart_init$918+3
  2198                           
  2199                           ;./uart.h: 73:         e3 = fabsf((frequency / (4 * (z + 1)) - baudrate) / baudrate);
  2200   0015E4  C08D  F01B         	movff	_uart_init$918,___fldiv@b
  2201   0015E8  C08E  F01C         	movff	_uart_init$918+1,___fldiv@b+1
  2202   0015EC  C08F  F01D         	movff	_uart_init$918+2,___fldiv@b+2
  2203   0015F0  C090  F01E         	movff	_uart_init$918+3,___fldiv@b+3
  2204   0015F4  C095  F01F         	movff	uart_init@baudrate,___fldiv@a
  2205   0015F8  C096  F020         	movff	uart_init@baudrate+1,___fldiv@a+1
  2206   0015FC  C097  F021         	movff	uart_init@baudrate+2,___fldiv@a+2
  2207   001600  C098  F022         	movff	uart_init@baudrate+3,___fldiv@a+3
  2208   001604  ECA3  F010         	call	___fldiv	;wreg free
  2209   001608  C01B  F04C         	movff	?___fldiv,fabsf@x
  2210   00160C  C01C  F04D         	movff	?___fldiv+1,fabsf@x+1
  2211   001610  C01D  F04E         	movff	?___fldiv+2,fabsf@x+2
  2212   001614  C01E  F04F         	movff	?___fldiv+3,fabsf@x+3
  2213   001618  ECDA  F017         	call	_fabsf	;wreg free
  2214   00161C  C04C  F081         	movff	?_fabsf,uart_init@e3
  2215   001620  C04D  F082         	movff	?_fabsf+1,uart_init@e3+1
  2216   001624  C04E  F083         	movff	?_fabsf+2,uart_init@e3+2
  2217   001628  C04F  F084         	movff	?_fabsf+3,uart_init@e3+3
  2218                           
  2219                           ;./uart.h: 74:         e33 = fabsf((frequency / (4 * (z + 1 + 1)) - baudrate) / baudrate
      +                          );
  2220   00162C  C095  F048         	movff	uart_init@baudrate,___flsub@a
  2221   001630  C096  F049         	movff	uart_init@baudrate+1,___flsub@a+1
  2222   001634  C097  F04A         	movff	uart_init@baudrate+2,___flsub@a+2
  2223   001638  C098  F04B         	movff	uart_init@baudrate+3,___flsub@a+3
  2224   00163C  C089  F058         	movff	uart_init@z,??_uart_init
  2225   001640  C08A  F059         	movff	uart_init@z+1,??_uart_init+1
  2226   001644  C08B  F05A         	movff	uart_init@z+2,??_uart_init+2
  2227   001648  C08C  F05B         	movff	uart_init@z+3,??_uart_init+3
  2228   00164C  0E02               	movlw	2
  2229   00164E                     u3195:
  2230   00164E  90D8               	bcf	status,0,c
  2231   001650  3658               	rlcf	??_uart_init^0,f,c
  2232   001652  3659               	rlcf	(??_uart_init+1)^0,f,c
  2233   001654  365A               	rlcf	(??_uart_init+2)^0,f,c
  2234   001656  365B               	rlcf	(??_uart_init+3)^0,f,c
  2235   001658  2EE8               	decfsz	wreg,f,c
  2236   00165A  EF27  F00B         	goto	u3195
  2237   00165E  0E08               	movlw	8
  2238   001660  2458               	addwf	??_uart_init^0,w,c
  2239   001662  6E02               	movwf	___xxtofl@val^0,c
  2240   001664  0E00               	movlw	0
  2241   001666  2059               	addwfc	(??_uart_init+1)^0,w,c
  2242   001668  6E03               	movwf	(___xxtofl@val+1)^0,c
  2243   00166A  0E00               	movlw	0
  2244   00166C  205A               	addwfc	(??_uart_init+2)^0,w,c
  2245   00166E  6E04               	movwf	(___xxtofl@val+2)^0,c
  2246   001670  0E00               	movlw	0
  2247   001672  205B               	addwfc	(??_uart_init+3)^0,w,c
  2248   001674  6E05               	movwf	(___xxtofl@val+3)^0,c
  2249   001676  0E01               	movlw	1
  2250   001678  EC70  F012         	call	___xxtofl
  2251   00167C  C002  F01F         	movff	?___xxtofl,___fldiv@a
  2252   001680  C003  F020         	movff	?___xxtofl+1,___fldiv@a+1
  2253   001684  C004  F021         	movff	?___xxtofl+2,___fldiv@a+2
  2254   001688  C005  F022         	movff	?___xxtofl+3,___fldiv@a+3
  2255   00168C  C091  F01B         	movff	uart_init@frequency,___fldiv@b
  2256   001690  C092  F01C         	movff	uart_init@frequency+1,___fldiv@b+1
  2257   001694  C093  F01D         	movff	uart_init@frequency+2,___fldiv@b+2
  2258   001698  C094  F01E         	movff	uart_init@frequency+3,___fldiv@b+3
  2259   00169C  ECA3  F010         	call	___fldiv	;wreg free
  2260   0016A0  C01B  F044         	movff	?___fldiv,___flsub@b
  2261   0016A4  C01C  F045         	movff	?___fldiv+1,___flsub@b+1
  2262   0016A8  C01D  F046         	movff	?___fldiv+2,___flsub@b+2
  2263   0016AC  C01E  F047         	movff	?___fldiv+3,___flsub@b+3
  2264   0016B0  EC77  F017         	call	___flsub	;wreg free
  2265   0016B4  C044  F08D         	movff	?___flsub,_uart_init$918
  2266   0016B8  C045  F08E         	movff	?___flsub+1,_uart_init$918+1
  2267   0016BC  C046  F08F         	movff	?___flsub+2,_uart_init$918+2
  2268   0016C0  C047  F090         	movff	?___flsub+3,_uart_init$918+3
  2269                           
  2270                           ;./uart.h: 74:         e33 = fabsf((frequency / (4 * (z + 1 + 1)) - baudrate) / baudrate
      +                          );
  2271   0016C4  C08D  F01B         	movff	_uart_init$918,___fldiv@b
  2272   0016C8  C08E  F01C         	movff	_uart_init$918+1,___fldiv@b+1
  2273   0016CC  C08F  F01D         	movff	_uart_init$918+2,___fldiv@b+2
  2274   0016D0  C090  F01E         	movff	_uart_init$918+3,___fldiv@b+3
  2275   0016D4  C095  F01F         	movff	uart_init@baudrate,___fldiv@a
  2276   0016D8  C096  F020         	movff	uart_init@baudrate+1,___fldiv@a+1
  2277   0016DC  C097  F021         	movff	uart_init@baudrate+2,___fldiv@a+2
  2278   0016E0  C098  F022         	movff	uart_init@baudrate+3,___fldiv@a+3
  2279   0016E4  ECA3  F010         	call	___fldiv	;wreg free
  2280   0016E8  C01B  F04C         	movff	?___fldiv,fabsf@x
  2281   0016EC  C01C  F04D         	movff	?___fldiv+1,fabsf@x+1
  2282   0016F0  C01D  F04E         	movff	?___fldiv+2,fabsf@x+2
  2283   0016F4  C01E  F04F         	movff	?___fldiv+3,fabsf@x+3
  2284   0016F8  ECDA  F017         	call	_fabsf	;wreg free
  2285   0016FC  C04C  F07D         	movff	?_fabsf,uart_init@e33
  2286   001700  C04D  F07E         	movff	?_fabsf+1,uart_init@e33+1
  2287   001704  C04E  F07F         	movff	?_fabsf+2,uart_init@e33+2
  2288   001708  C04F  F080         	movff	?_fabsf+3,uart_init@e33+3
  2289                           
  2290                           ;./uart.h: 75:         if (e33 < e3) e3 = e33;
  2291   00170C  C07D  F002         	movff	uart_init@e33,___flge@ff1
  2292   001710  C07E  F003         	movff	uart_init@e33+1,___flge@ff1+1
  2293   001714  C07F  F004         	movff	uart_init@e33+2,___flge@ff1+2
  2294   001718  C080  F005         	movff	uart_init@e33+3,___flge@ff1+3
  2295   00171C  C081  F006         	movff	uart_init@e3,___flge@ff2
  2296   001720  C082  F007         	movff	uart_init@e3+1,___flge@ff2+1
  2297   001724  C083  F008         	movff	uart_init@e3+2,___flge@ff2+2
  2298   001728  C084  F009         	movff	uart_init@e3+3,___flge@ff2+3
  2299   00172C  EC5C  F014         	call	___flge	;wreg free
  2300   001730  B0D8               	btfsc	status,0,c
  2301   001732  EF9D  F00B         	goto	u3201
  2302   001736  EF9F  F00B         	goto	u3200
  2303   00173A                     u3201:
  2304   00173A  EFA7  F00B         	goto	l123
  2305   00173E                     u3200:
  2306   00173E  C07D  F081         	movff	uart_init@e33,uart_init@e3
  2307   001742  C07E  F082         	movff	uart_init@e33+1,uart_init@e3+1
  2308   001746  C07F  F083         	movff	uart_init@e33+2,uart_init@e3+2
  2309   00174A  C080  F084         	movff	uart_init@e33+3,uart_init@e3+3
  2310   00174E                     l123:
  2311                           
  2312                           ;./uart.h: 76:         min = e3;
  2313   00174E  C081  F068         	movff	uart_init@e3,uart_init@min
  2314   001752  C082  F069         	movff	uart_init@e3+1,uart_init@min+1
  2315   001756  C083  F06A         	movff	uart_init@e3+2,uart_init@min+2
  2316   00175A  C084  F06B         	movff	uart_init@e3+3,uart_init@min+3
  2317   00175E                     l2688:
  2318                           
  2319                           ;./uart.h: 81:     if (min == e1) {
  2320   00175E  C068  F002         	movff	uart_init@min,___fleq@ff1
  2321   001762  C069  F003         	movff	uart_init@min+1,___fleq@ff1+1
  2322   001766  C06A  F004         	movff	uart_init@min+2,___fleq@ff1+2
  2323   00176A  C06B  F005         	movff	uart_init@min+3,___fleq@ff1+3
  2324   00176E  C06C  F006         	movff	uart_init@e1,___fleq@ff2
  2325   001772  C06D  F007         	movff	uart_init@e1+1,___fleq@ff2+1
  2326   001776  C06E  F008         	movff	uart_init@e1+2,___fleq@ff2+2
  2327   00177A  C06F  F009         	movff	uart_init@e1+3,___fleq@ff2+3
  2328   00177E  EC5D  F015         	call	___fleq	;wreg free
  2329   001782  A0D8               	btfss	status,0,c
  2330   001784  EFC6  F00B         	goto	u3211
  2331   001788  EFC8  F00B         	goto	u3210
  2332   00178C                     u3211:
  2333   00178C  EFCE  F00B         	goto	l2692
  2334   001790                     u3210:
  2335   001790                     
  2336                           ;./uart.h: 82:         BRGH = 0;
  2337   001790  94AC               	bcf	4012,2,c	;volatile
  2338                           
  2339                           ;./uart.h: 83:         BRG16 = 0;
  2340   001792  96B8               	bcf	4024,3,c	;volatile
  2341                           
  2342                           ;./uart.h: 84:         SPBRG = x;
  2343   001794  C075  FFAF         	movff	uart_init@x,4015	;volatile
  2344                           
  2345                           ;./uart.h: 85:     }
  2346   001798  EFF5  F00B         	goto	l127
  2347   00179C                     l2692:
  2348   00179C  C068  F002         	movff	uart_init@min,___fleq@ff1
  2349   0017A0  C069  F003         	movff	uart_init@min+1,___fleq@ff1+1
  2350   0017A4  C06A  F004         	movff	uart_init@min+2,___fleq@ff1+2
  2351   0017A8  C06B  F005         	movff	uart_init@min+3,___fleq@ff1+3
  2352   0017AC  C079  F006         	movff	uart_init@e2,___fleq@ff2
  2353   0017B0  C07A  F007         	movff	uart_init@e2+1,___fleq@ff2+1
  2354   0017B4  C07B  F008         	movff	uart_init@e2+2,___fleq@ff2+2
  2355   0017B8  C07C  F009         	movff	uart_init@e2+3,___fleq@ff2+3
  2356   0017BC  EC5D  F015         	call	___fleq	;wreg free
  2357   0017C0  A0D8               	btfss	status,0,c
  2358   0017C2  EFE5  F00B         	goto	u3221
  2359   0017C6  EFE7  F00B         	goto	u3220
  2360   0017CA                     u3221:
  2361   0017CA  EFEF  F00B         	goto	l128
  2362   0017CE                     u3220:
  2363   0017CE                     
  2364                           ;./uart.h: 87:         BRGH = 1;
  2365   0017CE  84AC               	bsf	4012,2,c	;volatile
  2366                           
  2367                           ;./uart.h: 88:         BRG16 = 0;
  2368   0017D0  96B8               	bcf	4024,3,c	;volatile
  2369                           
  2370                           ;./uart.h: 89:         SPBRG = y;
  2371   0017D2  C085  FFAF         	movff	uart_init@y,4015	;volatile
  2372                           
  2373                           ;./uart.h: 90:         SPBRGH = y >> 8;
  2374   0017D6  C086  FFB0         	movff	uart_init@y+1,4016	;volatile
  2375                           
  2376                           ;./uart.h: 91:     }
  2377   0017DA  EFF5  F00B         	goto	l127
  2378   0017DE                     l128:
  2379                           
  2380                           ;./uart.h: 93:         BRGH = 1;
  2381   0017DE  84AC               	bsf	4012,2,c	;volatile
  2382                           
  2383                           ;./uart.h: 94:         BRG16 = 1;
  2384   0017E0  86B8               	bsf	4024,3,c	;volatile
  2385                           
  2386                           ;./uart.h: 95:         SPBRG = z;
  2387   0017E2  C089  FFAF         	movff	uart_init@z,4015	;volatile
  2388                           
  2389                           ;./uart.h: 96:         SPBRGH = z >> 8;
  2390   0017E6  C08A  FFB0         	movff	uart_init@z+1,4016	;volatile
  2391   0017EA                     l127:
  2392                           
  2393                           ;./uart.h: 102:     TRISCbits.TRISC6 = 1;
  2394   0017EA  8C94               	bsf	148,6,c	;volatile
  2395                           
  2396                           ;./uart.h: 103:     TRISCbits.TRISC7 = 1;
  2397   0017EC  8E94               	bsf	148,7,c	;volatile
  2398                           
  2399                           ;./uart.h: 106:     if ((config & 0x02) == 0x02) {
  2400   0017EE  0100               	movlb	0	; () banked
  2401   0017F0  A370               	btfss	uart_init@config& (0+255),1,b
  2402   0017F2  EFFD  F00B         	goto	u3231
  2403   0017F6  EFFF  F00B         	goto	u3230
  2404   0017FA                     u3231:
  2405   0017FA  EF03  F00C         	goto	l130
  2406   0017FE                     u3230:
  2407   0017FE                     
  2408                           ; BSR set to: 0
  2409                           ;./uart.h: 107:         TXCKP = 1;
  2410   0017FE  88B8               	bsf	4024,4,c	;volatile
  2411                           
  2412                           ;./uart.h: 108:         RXDTP = 1;
  2413   001800  8AB8               	bsf	4024,5,c	;volatile
  2414                           
  2415                           ;./uart.h: 109:     } else {
  2416   001802  EF05  F00C         	goto	l131
  2417   001806                     l130:
  2418                           
  2419                           ; BSR set to: 0
  2420                           ;./uart.h: 110:         RXDTP = 0;
  2421   001806  9AB8               	bcf	4024,5,c	;volatile
  2422                           
  2423                           ;./uart.h: 111:         TXCKP = 0;
  2424   001808  98B8               	bcf	4024,4,c	;volatile
  2425   00180A                     l131:
  2426                           
  2427                           ; BSR set to: 0
  2428                           ;./uart.h: 115:     if ((config & 0x04) == 0x04) {
  2429   00180A  A570               	btfss	uart_init@config& (0+255),2,b
  2430   00180C  EF0A  F00C         	goto	u3241
  2431   001810  EF0C  F00C         	goto	u3240
  2432   001814                     u3241:
  2433   001814  EF0F  F00C         	goto	l132
  2434   001818                     u3240:
  2435   001818                     
  2436                           ; BSR set to: 0
  2437                           ;./uart.h: 117:         RCIE = 1;
  2438   001818  8A9D               	bsf	3997,5,c	;volatile
  2439                           
  2440                           ;./uart.h: 118:     } else {
  2441   00181A  EF11  F00C         	goto	l133
  2442   00181E                     l132:
  2443                           
  2444                           ; BSR set to: 0
  2445                           ;./uart.h: 119:         RCIE = 0;
  2446   00181E  9A9D               	bcf	3997,5,c	;volatile
  2447                           
  2448                           ;./uart.h: 120:         TXIE = 0;
  2449   001820  989D               	bcf	3997,4,c	;volatile
  2450   001822                     l133:
  2451                           
  2452                           ; BSR set to: 0
  2453                           ;./uart.h: 124:     if ((config & 0x08) == 0x08) {
  2454   001822  A770               	btfss	uart_init@config& (0+255),3,b
  2455   001824  EF16  F00C         	goto	u3251
  2456   001828  EF18  F00C         	goto	u3250
  2457   00182C                     u3251:
  2458   00182C  EF1C  F00C         	goto	l134
  2459   001830                     u3250:
  2460   001830                     
  2461                           ; BSR set to: 0
  2462                           ;./uart.h: 125:         TX9 = 1;
  2463   001830  8CAC               	bsf	4012,6,c	;volatile
  2464                           
  2465                           ;./uart.h: 126:         RX9 = 1;
  2466   001832  8CAB               	bsf	4011,6,c	;volatile
  2467                           
  2468                           ;./uart.h: 127:     } else {
  2469   001834  EF1E  F00C         	goto	l135
  2470   001838                     l134:
  2471                           
  2472                           ; BSR set to: 0
  2473                           ;./uart.h: 128:         TX9 = 0;
  2474   001838  9CAC               	bcf	4012,6,c	;volatile
  2475                           
  2476                           ;./uart.h: 129:         RX9 = 0;
  2477   00183A  9CAB               	bcf	4011,6,c	;volatile
  2478   00183C                     l135:
  2479                           
  2480                           ; BSR set to: 0
  2481                           ;./uart.h: 133:     if ((config & 0x01) == 0x01) {
  2482   00183C  A170               	btfss	uart_init@config& (0+255),0,b
  2483   00183E  EF23  F00C         	goto	u3261
  2484   001842  EF25  F00C         	goto	u3260
  2485   001846                     u3261:
  2486   001846  EF28  F00C         	goto	l136
  2487   00184A                     u3260:
  2488   00184A                     
  2489                           ; BSR set to: 0
  2490                           ;./uart.h: 134:         SYNC = 0;
  2491   00184A  98AC               	bcf	4012,4,c	;volatile
  2492                           
  2493                           ;./uart.h: 135:     } else {
  2494   00184C  EF29  F00C         	goto	l137
  2495   001850                     l136:
  2496                           
  2497                           ; BSR set to: 0
  2498                           ;./uart.h: 136:         SYNC = 1;
  2499   001850  88AC               	bsf	4012,4,c	;volatile
  2500   001852                     l137:
  2501                           
  2502                           ; BSR set to: 0
  2503                           ;./uart.h: 139:     CREN = 1;
  2504   001852  88AB               	bsf	4011,4,c	;volatile
  2505                           
  2506                           ;./uart.h: 140:     SREN = 1;
  2507   001854  8AAB               	bsf	4011,5,c	;volatile
  2508                           
  2509                           ;./uart.h: 141:     TXEN = 1;
  2510   001856  8AAC               	bsf	4012,5,c	;volatile
  2511                           
  2512                           ;./uart.h: 142:     SPEN = 1;
  2513   001858  8EAB               	bsf	4011,7,c	;volatile
  2514   00185A                     l125:
  2515                           
  2516                           ; BSR set to: 0
  2517   00185A  0012               	return		;funcret
  2518   00185C                     __end_of_uart_init:
  2519                           	callstack 0
  2520                           
  2521 ;; *************** function _fminf *****************
  2522 ;; Defined at:
  2523 ;;		line 3 in file "C:\Program Files\Microchip\xc8\v2.45\pic\sources\c99\common\fminf.c"
  2524 ;; Parameters:    Size  Location     Type
  2525 ;;  x               4   15[COMRAM] float 
  2526 ;;  y               4   19[COMRAM] float 
  2527 ;; Auto vars:     Size  Location     Type
  2528 ;;		None
  2529 ;; Return value:  Size  Location     Type
  2530 ;;                  4   15[COMRAM] float 
  2531 ;; Registers used:
  2532 ;;		wreg, status,2, status,0, cstack
  2533 ;; Tracked objects:
  2534 ;;		On entry : 0/0
  2535 ;;		On exit  : 0/0
  2536 ;;		Unchanged: 0/0
  2537 ;; Data sizes:     COMRAM   BANK0   BANK1   BANK2   BANK3   BANK4   BANK5   BANK6   BANK7
  2538 ;;      Params:         8       0       0       0       0       0       0       0       0
  2539 ;;      Locals:         0       0       0       0       0       0       0       0       0
  2540 ;;      Temps:          2       0       0       0       0       0       0       0       0
  2541 ;;      Totals:        10       0       0       0       0       0       0       0       0
  2542 ;;Total ram usage:       10 bytes
  2543 ;; Hardware stack levels used: 1
  2544 ;; Hardware stack levels required when called: 2
  2545 ;; This function calls:
  2546 ;;		___flge
  2547 ;;		___fpclassifyf
  2548 ;;		___signbitf
  2549 ;; This function is called by:
  2550 ;;		_uart_init
  2551 ;; This function uses a non-reentrant model
  2552 ;;
  2553                           
  2554                           	psect	text4
  2555   002694                     __ptext4:
  2556                           	callstack 0
  2557   002694                     _fminf:
  2558                           	callstack 27
  2559   002694  C010  F002         	movff	fminf@x,___fpclassifyf@x
  2560   002698  C011  F003         	movff	fminf@x+1,___fpclassifyf@x+1
  2561   00269C  C012  F004         	movff	fminf@x+2,___fpclassifyf@x+2
  2562   0026A0  C013  F005         	movff	fminf@x+3,___fpclassifyf@x+3
  2563   0026A4  ECDE  F014         	call	___fpclassifyf	;wreg free
  2564   0026A8  5002               	movf	?___fpclassifyf^0,w,c
  2565   0026AA  1003               	iorwf	(?___fpclassifyf+1)^0,w,c
  2566   0026AC  A4D8               	btfss	status,2,c
  2567   0026AE  EF5B  F013         	goto	u2301
  2568   0026B2  EF5D  F013         	goto	u2300
  2569   0026B6                     u2301:
  2570   0026B6  EF67  F013         	goto	l2162
  2571   0026BA                     u2300:
  2572   0026BA                     l2160:
  2573   0026BA  C014  F010         	movff	fminf@y,?_fminf
  2574   0026BE  C015  F011         	movff	fminf@y+1,?_fminf+1
  2575   0026C2  C016  F012         	movff	fminf@y+2,?_fminf+2
  2576   0026C6  C017  F013         	movff	fminf@y+3,?_fminf+3
  2577   0026CA  EFD8  F013         	goto	l880
  2578   0026CE                     l2162:
  2579   0026CE  C014  F002         	movff	fminf@y,___fpclassifyf@x
  2580   0026D2  C015  F003         	movff	fminf@y+1,___fpclassifyf@x+1
  2581   0026D6  C016  F004         	movff	fminf@y+2,___fpclassifyf@x+2
  2582   0026DA  C017  F005         	movff	fminf@y+3,___fpclassifyf@x+3
  2583   0026DE  ECDE  F014         	call	___fpclassifyf	;wreg free
  2584   0026E2  5002               	movf	?___fpclassifyf^0,w,c
  2585   0026E4  1003               	iorwf	(?___fpclassifyf+1)^0,w,c
  2586   0026E6  A4D8               	btfss	status,2,c
  2587   0026E8  EF78  F013         	goto	u2311
  2588   0026EC  EF7A  F013         	goto	u2310
  2589   0026F0                     u2311:
  2590   0026F0  EF84  F013         	goto	l2166
  2591   0026F4                     u2310:
  2592   0026F4                     l2164:
  2593   0026F4  C010  F010         	movff	fminf@x,?_fminf
  2594   0026F8  C011  F011         	movff	fminf@x+1,?_fminf+1
  2595   0026FC  C012  F012         	movff	fminf@x+2,?_fminf+2
  2596   002700  C013  F013         	movff	fminf@x+3,?_fminf+3
  2597   002704  EFD8  F013         	goto	l880
  2598   002708                     l2166:
  2599   002708  C010  F002         	movff	fminf@x,___signbitf@x
  2600   00270C  C011  F003         	movff	fminf@x+1,___signbitf@x+1
  2601   002710  C012  F004         	movff	fminf@x+2,___signbitf@x+2
  2602   002714  C013  F005         	movff	fminf@x+3,___signbitf@x+3
  2603   002718  EC4F  F017         	call	___signbitf	;wreg free
  2604   00271C  C002  F018         	movff	?___signbitf,??_fminf
  2605   002720  C003  F019         	movff	?___signbitf+1,??_fminf+1
  2606   002724  C014  F002         	movff	fminf@y,___signbitf@x
  2607   002728  C015  F003         	movff	fminf@y+1,___signbitf@x+1
  2608   00272C  C016  F004         	movff	fminf@y+2,___signbitf@x+2
  2609   002730  C017  F005         	movff	fminf@y+3,___signbitf@x+3
  2610   002734  EC4F  F017         	call	___signbitf	;wreg free
  2611   002738  5002               	movf	?___signbitf^0,w,c
  2612   00273A  1818               	xorwf	??_fminf^0,w,c
  2613   00273C  E109               	bnz	u2320
  2614   00273E  5003               	movf	(?___signbitf+1)^0,w,c
  2615   002740  1819               	xorwf	(??_fminf+1)^0,w,c
  2616   002742  B4D8               	btfsc	status,2,c
  2617   002744  EFA6  F013         	goto	u2321
  2618   002748  EFA8  F013         	goto	u2320
  2619   00274C                     u2321:
  2620   00274C  EFBD  F013         	goto	l2172
  2621   002750                     u2320:
  2622   002750  C010  F002         	movff	fminf@x,___signbitf@x
  2623   002754  C011  F003         	movff	fminf@x+1,___signbitf@x+1
  2624   002758  C012  F004         	movff	fminf@x+2,___signbitf@x+2
  2625   00275C  C013  F005         	movff	fminf@x+3,___signbitf@x+3
  2626   002760  EC4F  F017         	call	___signbitf	;wreg free
  2627   002764  5002               	movf	?___signbitf^0,w,c
  2628   002766  1003               	iorwf	(?___signbitf+1)^0,w,c
  2629   002768  A4D8               	btfss	status,2,c
  2630   00276A  EFB9  F013         	goto	u2331
  2631   00276E  EFBB  F013         	goto	u2330
  2632   002772                     u2331:
  2633   002772  EF7A  F013         	goto	l2164
  2634   002776                     u2330:
  2635   002776  EF5D  F013         	goto	l2160
  2636   00277A                     l2172:
  2637   00277A  C010  F002         	movff	fminf@x,___flge@ff1
  2638   00277E  C011  F003         	movff	fminf@x+1,___flge@ff1+1
  2639   002782  C012  F004         	movff	fminf@x+2,___flge@ff1+2
  2640   002786  C013  F005         	movff	fminf@x+3,___flge@ff1+3
  2641   00278A  C014  F006         	movff	fminf@y,___flge@ff2
  2642   00278E  C015  F007         	movff	fminf@y+1,___flge@ff2+1
  2643   002792  C016  F008         	movff	fminf@y+2,___flge@ff2+2
  2644   002796  C017  F009         	movff	fminf@y+3,___flge@ff2+3
  2645   00279A  EC5C  F014         	call	___flge	;wreg free
  2646   00279E  A0D8               	btfss	status,0,c
  2647   0027A0  EFD4  F013         	goto	u2341
  2648   0027A4  EFD6  F013         	goto	u2340
  2649   0027A8                     u2341:
  2650   0027A8  EF7A  F013         	goto	l2164
  2651   0027AC                     u2340:
  2652   0027AC  EF5D  F013         	goto	l2160
  2653   0027B0                     l880:
  2654   0027B0  0012               	return		;funcret
  2655   0027B2                     __end_of_fminf:
  2656                           	callstack 0
  2657                           
  2658 ;; *************** function ___signbitf *****************
  2659 ;; Defined at:
  2660 ;;		line 4 in file "C:\Program Files\Microchip\xc8\v2.45\pic\sources\c99\common\__signbitf.c"
  2661 ;; Parameters:    Size  Location     Type
  2662 ;;  x               4    1[COMRAM] float 
  2663 ;; Auto vars:     Size  Location     Type
  2664 ;;  y               4    9[COMRAM] struct .
  2665 ;; Return value:  Size  Location     Type
  2666 ;;                  2    1[COMRAM] int 
  2667 ;; Registers used:
  2668 ;;		wreg, status,2, status,0
  2669 ;; Tracked objects:
  2670 ;;		On entry : 0/0
  2671 ;;		On exit  : 0/0
  2672 ;;		Unchanged: 0/0
  2673 ;; Data sizes:     COMRAM   BANK0   BANK1   BANK2   BANK3   BANK4   BANK5   BANK6   BANK7
  2674 ;;      Params:         4       0       0       0       0       0       0       0       0
  2675 ;;      Locals:         4       0       0       0       0       0       0       0       0
  2676 ;;      Temps:          4       0       0       0       0       0       0       0       0
  2677 ;;      Totals:        12       0       0       0       0       0       0       0       0
  2678 ;;Total ram usage:       12 bytes
  2679 ;; Hardware stack levels used: 1
  2680 ;; Hardware stack levels required when called: 1
  2681 ;; This function calls:
  2682 ;;		Nothing
  2683 ;; This function is called by:
  2684 ;;		_fminf
  2685 ;; This function uses a non-reentrant model
  2686 ;;
  2687                           
  2688                           	psect	text5
  2689   002E9E                     __ptext5:
  2690                           	callstack 0
  2691   002E9E                     ___signbitf:
  2692                           	callstack 27
  2693   002E9E  C09A  F00A         	movff	___signbitf@F521,___signbitf@y
  2694   002EA2  C09B  F00B         	movff	___signbitf@F521+1,___signbitf@y+1
  2695   002EA6  C09C  F00C         	movff	___signbitf@F521+2,___signbitf@y+2
  2696   002EAA  C09D  F00D         	movff	___signbitf@F521+3,___signbitf@y+3
  2697   002EAE  C002  F00A         	movff	___signbitf@x,___signbitf@y
  2698   002EB2  C003  F00B         	movff	___signbitf@x+1,___signbitf@y+1
  2699   002EB6  C004  F00C         	movff	___signbitf@x+2,___signbitf@y+2
  2700   002EBA  C005  F00D         	movff	___signbitf@x+3,___signbitf@y+3
  2701   002EBE  C00A  F006         	movff	___signbitf@y,??___signbitf
  2702   002EC2  C00B  F007         	movff	___signbitf@y+1,??___signbitf+1
  2703   002EC6  C00C  F008         	movff	___signbitf@y+2,??___signbitf+2
  2704   002ECA  C00D  F009         	movff	___signbitf@y+3,??___signbitf+3
  2705   002ECE  0E20               	movlw	32
  2706   002ED0  EF6F  F017         	goto	u2270
  2707   002ED4                     u2275:
  2708   002ED4  90D8               	bcf	status,0,c
  2709   002ED6  3209               	rrcf	(??___signbitf+3)^0,f,c
  2710   002ED8  3208               	rrcf	(??___signbitf+2)^0,f,c
  2711   002EDA  3207               	rrcf	(??___signbitf+1)^0,f,c
  2712   002EDC  3206               	rrcf	??___signbitf^0,f,c
  2713   002EDE                     u2270:
  2714   002EDE  2EE8               	decfsz	wreg,f,c
  2715   002EE0  EF6A  F017         	goto	u2275
  2716   002EE4  C006  F002         	movff	??___signbitf,?___signbitf
  2717   002EE8  C007  F003         	movff	??___signbitf+1,?___signbitf+1
  2718   002EEC  0012               	return		;funcret
  2719   002EEE                     __end_of___signbitf:
  2720                           	callstack 0
  2721                           
  2722 ;; *************** function ___fpclassifyf *****************
  2723 ;; Defined at:
  2724 ;;		line 4 in file "C:\Program Files\Microchip\xc8\v2.45\pic\sources\c99\common\__fpclassifyf.c"
  2725 ;; Parameters:    Size  Location     Type
  2726 ;;  x               4    1[COMRAM] float 
  2727 ;; Auto vars:     Size  Location     Type
  2728 ;;  u               4   11[COMRAM] struct .
  2729 ;;  e               2    9[COMRAM] int 
  2730 ;; Return value:  Size  Location     Type
  2731 ;;                  2    1[COMRAM] int 
  2732 ;; Registers used:
  2733 ;;		wreg, status,2, status,0
  2734 ;; Tracked objects:
  2735 ;;		On entry : 0/0
  2736 ;;		On exit  : 0/0
  2737 ;;		Unchanged: 0/0
  2738 ;; Data sizes:     COMRAM   BANK0   BANK1   BANK2   BANK3   BANK4   BANK5   BANK6   BANK7
  2739 ;;      Params:         4       0       0       0       0       0       0       0       0
  2740 ;;      Locals:         6       0       0       0       0       0       0       0       0
  2741 ;;      Temps:          4       0       0       0       0       0       0       0       0
  2742 ;;      Totals:        14       0       0       0       0       0       0       0       0
  2743 ;;Total ram usage:       14 bytes
  2744 ;; Hardware stack levels used: 1
  2745 ;; Hardware stack levels required when called: 1
  2746 ;; This function calls:
  2747 ;;		Nothing
  2748 ;; This function is called by:
  2749 ;;		_fminf
  2750 ;; This function uses a non-reentrant model
  2751 ;;
  2752                           
  2753                           	psect	text6
  2754   0029BC                     __ptext6:
  2755                           	callstack 0
  2756   0029BC                     ___fpclassifyf:
  2757                           	callstack 27
  2758   0029BC  C09E  F00C         	movff	___fpclassifyf@F465,___fpclassifyf@u
  2759   0029C0  C09F  F00D         	movff	___fpclassifyf@F465+1,___fpclassifyf@u+1
  2760   0029C4  C0A0  F00E         	movff	___fpclassifyf@F465+2,___fpclassifyf@u+2
  2761   0029C8  C0A1  F00F         	movff	___fpclassifyf@F465+3,___fpclassifyf@u+3
  2762   0029CC  C002  F00C         	movff	___fpclassifyf@x,___fpclassifyf@u
  2763   0029D0  C003  F00D         	movff	___fpclassifyf@x+1,___fpclassifyf@u+1
  2764   0029D4  C004  F00E         	movff	___fpclassifyf@x+2,___fpclassifyf@u+2
  2765   0029D8  C005  F00F         	movff	___fpclassifyf@x+3,___fpclassifyf@u+3
  2766   0029DC  C00C  F006         	movff	___fpclassifyf@u,??___fpclassifyf
  2767   0029E0  C00D  F007         	movff	___fpclassifyf@u+1,??___fpclassifyf+1
  2768   0029E4  C00E  F008         	movff	___fpclassifyf@u+2,??___fpclassifyf+2
  2769   0029E8  C00F  F009         	movff	___fpclassifyf@u+3,??___fpclassifyf+3
  2770   0029EC  0E18               	movlw	24
  2771   0029EE  EFFE  F014         	goto	u2200
  2772   0029F2                     u2205:
  2773   0029F2  90D8               	bcf	status,0,c
  2774   0029F4  3209               	rrcf	(??___fpclassifyf+3)^0,f,c
  2775   0029F6  3208               	rrcf	(??___fpclassifyf+2)^0,f,c
  2776   0029F8  3207               	rrcf	(??___fpclassifyf+1)^0,f,c
  2777   0029FA  3206               	rrcf	??___fpclassifyf^0,f,c
  2778   0029FC                     u2200:
  2779   0029FC  2EE8               	decfsz	wreg,f,c
  2780   0029FE  EFF9  F014         	goto	u2205
  2781   002A02  5006               	movf	??___fpclassifyf^0,w,c
  2782   002A04  6E0A               	movwf	___fpclassifyf@e^0,c
  2783   002A06  6A0B               	clrf	(___fpclassifyf@e+1)^0,c
  2784   002A08  500A               	movf	___fpclassifyf@e^0,w,c
  2785   002A0A  100B               	iorwf	(___fpclassifyf@e+1)^0,w,c
  2786   002A0C  A4D8               	btfss	status,2,c
  2787   002A0E  EF0B  F015         	goto	u2211
  2788   002A12  EF0D  F015         	goto	u2210
  2789   002A16                     u2211:
  2790   002A16  EF2D  F015         	goto	l2092
  2791   002A1A                     u2210:
  2792   002A1A  90D8               	bcf	status,0,c
  2793   002A1C  340C               	rlcf	___fpclassifyf@u^0,w,c
  2794   002A1E  6E06               	movwf	??___fpclassifyf^0,c
  2795   002A20  340D               	rlcf	(___fpclassifyf@u+1)^0,w,c
  2796   002A22  6E07               	movwf	(??___fpclassifyf+1)^0,c
  2797   002A24  340E               	rlcf	(___fpclassifyf@u+2)^0,w,c
  2798   002A26  6E08               	movwf	(??___fpclassifyf+2)^0,c
  2799   002A28  340F               	rlcf	(___fpclassifyf@u+3)^0,w,c
  2800   002A2A  6E09               	movwf	(??___fpclassifyf+3)^0,c
  2801   002A2C  5006               	movf	??___fpclassifyf^0,w,c
  2802   002A2E  1007               	iorwf	(??___fpclassifyf+1)^0,w,c
  2803   002A30  1008               	iorwf	(??___fpclassifyf+2)^0,w,c
  2804   002A32  1009               	iorwf	(??___fpclassifyf+3)^0,w,c
  2805   002A34  A4D8               	btfss	status,2,c
  2806   002A36  EF1F  F015         	goto	u2221
  2807   002A3A  EF21  F015         	goto	u2220
  2808   002A3E                     u2221:
  2809   002A3E  EF27  F015         	goto	l2088
  2810   002A42                     u2220:
  2811   002A42  0E00               	movlw	0
  2812   002A44  6E03               	movwf	(?___fpclassifyf+1)^0,c
  2813   002A46  0E02               	movlw	2
  2814   002A48  6E02               	movwf	?___fpclassifyf^0,c
  2815   002A4A  EF5C  F015         	goto	l900
  2816   002A4E                     l2088:
  2817   002A4E  0E00               	movlw	0
  2818   002A50  6E03               	movwf	(?___fpclassifyf+1)^0,c
  2819   002A52  0E03               	movlw	3
  2820   002A54  6E02               	movwf	?___fpclassifyf^0,c
  2821   002A56  EF5C  F015         	goto	l900
  2822   002A5A                     l2092:
  2823   002A5A  280A               	incf	___fpclassifyf@e^0,w,c
  2824   002A5C  100B               	iorwf	(___fpclassifyf@e+1)^0,w,c
  2825   002A5E  A4D8               	btfss	status,2,c
  2826   002A60  EF34  F015         	goto	u2231
  2827   002A64  EF36  F015         	goto	u2230
  2828   002A68                     u2231:
  2829   002A68  EF58  F015         	goto	l2098
  2830   002A6C                     u2230:
  2831   002A6C  C00C  F006         	movff	___fpclassifyf@u,??___fpclassifyf
  2832   002A70  C00D  F007         	movff	___fpclassifyf@u+1,??___fpclassifyf+1
  2833   002A74  C00E  F008         	movff	___fpclassifyf@u+2,??___fpclassifyf+2
  2834   002A78  C00F  F009         	movff	___fpclassifyf@u+3,??___fpclassifyf+3
  2835   002A7C  0E09               	movlw	9
  2836   002A7E                     u2245:
  2837   002A7E  90D8               	bcf	status,0,c
  2838   002A80  3606               	rlcf	??___fpclassifyf^0,f,c
  2839   002A82  3607               	rlcf	(??___fpclassifyf+1)^0,f,c
  2840   002A84  3608               	rlcf	(??___fpclassifyf+2)^0,f,c
  2841   002A86  3609               	rlcf	(??___fpclassifyf+3)^0,f,c
  2842   002A88  2EE8               	decfsz	wreg,f,c
  2843   002A8A  EF3F  F015         	goto	u2245
  2844   002A8E  5006               	movf	??___fpclassifyf^0,w,c
  2845   002A90  1007               	iorwf	(??___fpclassifyf+1)^0,w,c
  2846   002A92  1008               	iorwf	(??___fpclassifyf+2)^0,w,c
  2847   002A94  1009               	iorwf	(??___fpclassifyf+3)^0,w,c
  2848   002A96  B4D8               	btfsc	status,2,c
  2849   002A98  EF50  F015         	goto	u2251
  2850   002A9C  EF53  F015         	goto	u2250
  2851   002AA0                     u2251:
  2852   002AA0  0E01               	movlw	1
  2853   002AA2  EF54  F015         	goto	u2260
  2854   002AA6                     u2250:
  2855   002AA6  0E00               	movlw	0
  2856   002AA8                     u2260:
  2857   002AA8  6E02               	movwf	?___fpclassifyf^0,c
  2858   002AAA  6A03               	clrf	(?___fpclassifyf+1)^0,c
  2859   002AAC  EF5C  F015         	goto	l900
  2860   002AB0                     l2098:
  2861   002AB0  0E00               	movlw	0
  2862   002AB2  6E03               	movwf	(?___fpclassifyf+1)^0,c
  2863   002AB4  0E04               	movlw	4
  2864   002AB6  6E02               	movwf	?___fpclassifyf^0,c
  2865   002AB8                     l900:
  2866   002AB8  0012               	return		;funcret
  2867   002ABA                     __end_of___fpclassifyf:
  2868                           	callstack 0
  2869                           
  2870 ;; *************** function ___flge *****************
  2871 ;; Defined at:
  2872 ;;		line 4 in file "C:\Program Files\Microchip\xc8\v2.45\pic\sources\c99\common\flge.c"
  2873 ;; Parameters:    Size  Location     Type
  2874 ;;  ff1             4    1[COMRAM] int 
  2875 ;;  ff2             4    5[COMRAM] int 
  2876 ;; Auto vars:     Size  Location     Type
  2877 ;;		None
  2878 ;; Return value:  Size  Location     Type
  2879 ;;		None               void
  2880 ;; Registers used:
  2881 ;;		wreg, status,2, status,0
  2882 ;; Tracked objects:
  2883 ;;		On entry : 0/0
  2884 ;;		On exit  : 0/0
  2885 ;;		Unchanged: 0/0
  2886 ;; Data sizes:     COMRAM   BANK0   BANK1   BANK2   BANK3   BANK4   BANK5   BANK6   BANK7
  2887 ;;      Params:         8       0       0       0       0       0       0       0       0
  2888 ;;      Locals:         0       0       0       0       0       0       0       0       0
  2889 ;;      Temps:          4       0       0       0       0       0       0       0       0
  2890 ;;      Totals:        12       0       0       0       0       0       0       0       0
  2891 ;;Total ram usage:       12 bytes
  2892 ;; Hardware stack levels used: 1
  2893 ;; Hardware stack levels required when called: 1
  2894 ;; This function calls:
  2895 ;;		Nothing
  2896 ;; This function is called by:
  2897 ;;		_uart_init
  2898 ;;		_fminf
  2899 ;; This function uses a non-reentrant model
  2900 ;;
  2901                           
  2902                           	psect	text7
  2903   0028B8                     __ptext7:
  2904                           	callstack 0
  2905   0028B8                     ___flge:
  2906                           	callstack 27
  2907   0028B8  0E00               	movlw	0
  2908   0028BA  1402               	andwf	___flge@ff1^0,w,c
  2909   0028BC  6E0A               	movwf	??___flge^0,c
  2910   0028BE  0E00               	movlw	0
  2911   0028C0  1403               	andwf	(___flge@ff1+1)^0,w,c
  2912   0028C2  6E0B               	movwf	(??___flge+1)^0,c
  2913   0028C4  0E80               	movlw	128
  2914   0028C6  1404               	andwf	(___flge@ff1+2)^0,w,c
  2915   0028C8  6E0C               	movwf	(??___flge+2)^0,c
  2916   0028CA  0E7F               	movlw	127
  2917   0028CC  1405               	andwf	(___flge@ff1+3)^0,w,c
  2918   0028CE  6E0D               	movwf	(??___flge+3)^0,c
  2919   0028D0  500A               	movf	??___flge^0,w,c
  2920   0028D2  100B               	iorwf	(??___flge+1)^0,w,c
  2921   0028D4  100C               	iorwf	(??___flge+2)^0,w,c
  2922   0028D6  100D               	iorwf	(??___flge+3)^0,w,c
  2923   0028D8  A4D8               	btfss	status,2,c
  2924   0028DA  EF71  F014         	goto	u2151
  2925   0028DE  EF73  F014         	goto	u2150
  2926   0028E2                     u2151:
  2927   0028E2  EF7B  F014         	goto	l2062
  2928   0028E6                     u2150:
  2929   0028E6  0E00               	movlw	0
  2930   0028E8  6E02               	movwf	___flge@ff1^0,c
  2931   0028EA  0E00               	movlw	0
  2932   0028EC  6E03               	movwf	(___flge@ff1+1)^0,c
  2933   0028EE  0E00               	movlw	0
  2934   0028F0  6E04               	movwf	(___flge@ff1+2)^0,c
  2935   0028F2  0E00               	movlw	0
  2936   0028F4  6E05               	movwf	(___flge@ff1+3)^0,c
  2937   0028F6                     l2062:
  2938   0028F6  0E00               	movlw	0
  2939   0028F8  1406               	andwf	___flge@ff2^0,w,c
  2940   0028FA  6E0A               	movwf	??___flge^0,c
  2941   0028FC  0E00               	movlw	0
  2942   0028FE  1407               	andwf	(___flge@ff2+1)^0,w,c
  2943   002900  6E0B               	movwf	(??___flge+1)^0,c
  2944   002902  0E80               	movlw	128
  2945   002904  1408               	andwf	(___flge@ff2+2)^0,w,c
  2946   002906  6E0C               	movwf	(??___flge+2)^0,c
  2947   002908  0E7F               	movlw	127
  2948   00290A  1409               	andwf	(___flge@ff2+3)^0,w,c
  2949   00290C  6E0D               	movwf	(??___flge+3)^0,c
  2950   00290E  500A               	movf	??___flge^0,w,c
  2951   002910  100B               	iorwf	(??___flge+1)^0,w,c
  2952   002912  100C               	iorwf	(??___flge+2)^0,w,c
  2953   002914  100D               	iorwf	(??___flge+3)^0,w,c
  2954   002916  A4D8               	btfss	status,2,c
  2955   002918  EF90  F014         	goto	u2161
  2956   00291C  EF92  F014         	goto	u2160
  2957   002920                     u2161:
  2958   002920  EF9A  F014         	goto	l2066
  2959   002924                     u2160:
  2960   002924  0E00               	movlw	0
  2961   002926  6E06               	movwf	___flge@ff2^0,c
  2962   002928  0E00               	movlw	0
  2963   00292A  6E07               	movwf	(___flge@ff2+1)^0,c
  2964   00292C  0E00               	movlw	0
  2965   00292E  6E08               	movwf	(___flge@ff2+2)^0,c
  2966   002930  0E00               	movlw	0
  2967   002932  6E09               	movwf	(___flge@ff2+3)^0,c
  2968   002934                     l2066:
  2969   002934  AE05               	btfss	(___flge@ff1+3)^0,7,c
  2970   002936  EF9F  F014         	goto	u2171
  2971   00293A  EFA1  F014         	goto	u2170
  2972   00293E                     u2171:
  2973   00293E  EFAA  F014         	goto	l2070
  2974   002942                     u2170:
  2975   002942  6C02               	negf	___flge@ff1^0,c
  2976   002944  1E03               	comf	(___flge@ff1+1)^0,f,c
  2977   002946  B0D8               	btfsc	status,0,c
  2978   002948  2A03               	incf	(___flge@ff1+1)^0,f,c
  2979   00294A  1E04               	comf	(___flge@ff1+2)^0,f,c
  2980   00294C  B0D8               	btfsc	status,0,c
  2981   00294E  2A04               	incf	(___flge@ff1+2)^0,f,c
  2982   002950  0E80               	movlw	128
  2983   002952  5605               	subfwb	(___flge@ff1+3)^0,f,c
  2984   002954                     l2070:
  2985   002954  AE09               	btfss	(___flge@ff2+3)^0,7,c
  2986   002956  EFAF  F014         	goto	u2181
  2987   00295A  EFB1  F014         	goto	u2180
  2988   00295E                     u2181:
  2989   00295E  EFBA  F014         	goto	l461
  2990   002962                     u2180:
  2991   002962  6C06               	negf	___flge@ff2^0,c
  2992   002964  1E07               	comf	(___flge@ff2+1)^0,f,c
  2993   002966  B0D8               	btfsc	status,0,c
  2994   002968  2A07               	incf	(___flge@ff2+1)^0,f,c
  2995   00296A  1E08               	comf	(___flge@ff2+2)^0,f,c
  2996   00296C  B0D8               	btfsc	status,0,c
  2997   00296E  2A08               	incf	(___flge@ff2+2)^0,f,c
  2998   002970  0E80               	movlw	128
  2999   002972  5609               	subfwb	(___flge@ff2+3)^0,f,c
  3000   002974                     l461:
  3001   002974  0E00               	movlw	0
  3002   002976  1A02               	xorwf	___flge@ff1^0,f,c
  3003   002978  0E00               	movlw	0
  3004   00297A  1A03               	xorwf	(___flge@ff1+1)^0,f,c
  3005   00297C  0E00               	movlw	0
  3006   00297E  1A04               	xorwf	(___flge@ff1+2)^0,f,c
  3007   002980  0E80               	movlw	128
  3008   002982  1A05               	xorwf	(___flge@ff1+3)^0,f,c
  3009   002984  0E00               	movlw	0
  3010   002986  1A06               	xorwf	___flge@ff2^0,f,c
  3011   002988  0E00               	movlw	0
  3012   00298A  1A07               	xorwf	(___flge@ff2+1)^0,f,c
  3013   00298C  0E00               	movlw	0
  3014   00298E  1A08               	xorwf	(___flge@ff2+2)^0,f,c
  3015   002990  0E80               	movlw	128
  3016   002992  1A09               	xorwf	(___flge@ff2+3)^0,f,c
  3017   002994  5006               	movf	___flge@ff2^0,w,c
  3018   002996  5C02               	subwf	___flge@ff1^0,w,c
  3019   002998  5007               	movf	(___flge@ff2+1)^0,w,c
  3020   00299A  5803               	subwfb	(___flge@ff1+1)^0,w,c
  3021   00299C  5008               	movf	(___flge@ff2+2)^0,w,c
  3022   00299E  5804               	subwfb	(___flge@ff1+2)^0,w,c
  3023   0029A0  5009               	movf	(___flge@ff2+3)^0,w,c
  3024   0029A2  5805               	subwfb	(___flge@ff1+3)^0,w,c
  3025   0029A4  B0D8               	btfsc	status,0,c
  3026   0029A6  EFD7  F014         	goto	u2191
  3027   0029AA  EFD9  F014         	goto	u2190
  3028   0029AE                     u2191:
  3029   0029AE  EFDC  F014         	goto	l2076
  3030   0029B2                     u2190:
  3031   0029B2  90D8               	bcf	status,0,c
  3032   0029B4  EFDD  F014         	goto	l466
  3033   0029B8                     l2076:
  3034   0029B8  80D8               	bsf	status,0,c
  3035   0029BA                     l466:
  3036   0029BA  0012               	return		;funcret
  3037   0029BC                     __end_of___flge:
  3038                           	callstack 0
  3039                           
  3040 ;; *************** function _fabsf *****************
  3041 ;; Defined at:
  3042 ;;		line 4 in file "C:\Program Files\Microchip\xc8\v2.45\pic\sources\c99\common\fabsf.c"
  3043 ;; Parameters:    Size  Location     Type
  3044 ;;  x               4   75[COMRAM] float 
  3045 ;; Auto vars:     Size  Location     Type
  3046 ;;  u               4   79[COMRAM] struct .
  3047 ;; Return value:  Size  Location     Type
  3048 ;;                  4   75[COMRAM] float 
  3049 ;; Registers used:
  3050 ;;		status,2, status,0
  3051 ;; Tracked objects:
  3052 ;;		On entry : 0/0
  3053 ;;		On exit  : 0/0
  3054 ;;		Unchanged: 0/0
  3055 ;; Data sizes:     COMRAM   BANK0   BANK1   BANK2   BANK3   BANK4   BANK5   BANK6   BANK7
  3056 ;;      Params:         4       0       0       0       0       0       0       0       0
  3057 ;;      Locals:         4       0       0       0       0       0       0       0       0
  3058 ;;      Temps:          0       0       0       0       0       0       0       0       0
  3059 ;;      Totals:         8       0       0       0       0       0       0       0       0
  3060 ;;Total ram usage:        8 bytes
  3061 ;; Hardware stack levels used: 1
  3062 ;; Hardware stack levels required when called: 1
  3063 ;; This function calls:
  3064 ;;		Nothing
  3065 ;; This function is called by:
  3066 ;;		_uart_init
  3067 ;; This function uses a non-reentrant model
  3068 ;;
  3069                           
  3070                           	psect	text8
  3071   002FB4                     __ptext8:
  3072                           	callstack 0
  3073   002FB4                     _fabsf:
  3074                           	callstack 28
  3075   002FB4  C0A2  F050         	movff	fabsf@F465,fabsf@u
  3076   002FB8  C0A3  F051         	movff	fabsf@F465+1,fabsf@u+1
  3077   002FBC  C0A4  F052         	movff	fabsf@F465+2,fabsf@u+2
  3078   002FC0  C0A5  F053         	movff	fabsf@F465+3,fabsf@u+3
  3079   002FC4  C04C  F050         	movff	fabsf@x,fabsf@u
  3080   002FC8  C04D  F051         	movff	fabsf@x+1,fabsf@u+1
  3081   002FCC  C04E  F052         	movff	fabsf@x+2,fabsf@u+2
  3082   002FD0  C04F  F053         	movff	fabsf@x+3,fabsf@u+3
  3083   002FD4  9E53               	bcf	(fabsf@u+3)^0,7,c
  3084   002FD6  C050  F04C         	movff	fabsf@u,?_fabsf
  3085   002FDA  C051  F04D         	movff	fabsf@u+1,?_fabsf+1
  3086   002FDE  C052  F04E         	movff	fabsf@u+2,?_fabsf+2
  3087   002FE2  C053  F04F         	movff	fabsf@u+3,?_fabsf+3
  3088   002FE6  0012               	return		;funcret
  3089   002FE8                     __end_of_fabsf:
  3090                           	callstack 0
  3091                           
  3092 ;; *************** function ___xxtofl *****************
  3093 ;; Defined at:
  3094 ;;		line 10 in file "C:\Program Files\Microchip\xc8\v2.45\pic\sources\c99\common\xxtofl.c"
  3095 ;; Parameters:    Size  Location     Type
  3096 ;;  sign            1    wreg     unsigned char 
  3097 ;;  val             4    1[COMRAM] long 
  3098 ;; Auto vars:     Size  Location     Type
  3099 ;;  sign            1    9[COMRAM] unsigned char 
  3100 ;;  arg             4   11[COMRAM] unsigned long 
  3101 ;;  exp             1   10[COMRAM] unsigned char 
  3102 ;; Return value:  Size  Location     Type
  3103 ;;                  4    1[COMRAM] unsigned char 
  3104 ;; Registers used:
  3105 ;;		wreg, status,2, status,0
  3106 ;; Tracked objects:
  3107 ;;		On entry : 0/0
  3108 ;;		On exit  : 0/0
  3109 ;;		Unchanged: 0/0
  3110 ;; Data sizes:     COMRAM   BANK0   BANK1   BANK2   BANK3   BANK4   BANK5   BANK6   BANK7
  3111 ;;      Params:         4       0       0       0       0       0       0       0       0
  3112 ;;      Locals:         6       0       0       0       0       0       0       0       0
  3113 ;;      Temps:          4       0       0       0       0       0       0       0       0
  3114 ;;      Totals:        14       0       0       0       0       0       0       0       0
  3115 ;;Total ram usage:       14 bytes
  3116 ;; Hardware stack levels used: 1
  3117 ;; Hardware stack levels required when called: 1
  3118 ;; This function calls:
  3119 ;;		Nothing
  3120 ;; This function is called by:
  3121 ;;		_uart_init
  3122 ;; This function uses a non-reentrant model
  3123 ;;
  3124                           
  3125                           	psect	text9
  3126   0024E0                     __ptext9:
  3127                           	callstack 0
  3128   0024E0                     ___xxtofl:
  3129                           	callstack 28
  3130                           
  3131                           ;incstack = 0
  3132                           ;___xxtofl@sign stored from wreg
  3133   0024E0  6E0A               	movwf	___xxtofl@sign^0,c
  3134   0024E2  500A               	movf	___xxtofl@sign^0,w,c
  3135   0024E4  B4D8               	btfsc	status,2,c
  3136   0024E6  EF77  F012         	goto	u2871
  3137   0024EA  EF79  F012         	goto	u2870
  3138   0024EE                     u2871:
  3139   0024EE  EF9B  F012         	goto	l851
  3140   0024F2                     u2870:
  3141   0024F2  BE05               	btfsc	(___xxtofl@val+3)^0,7,c
  3142   0024F4  EF80  F012         	goto	u2880
  3143   0024F8  EF7E  F012         	goto	u2881
  3144   0024FC                     u2881:
  3145   0024FC  EF9B  F012         	goto	l851
  3146   002500                     u2880:
  3147   002500  C002  F006         	movff	___xxtofl@val,??___xxtofl
  3148   002504  C003  F007         	movff	___xxtofl@val+1,??___xxtofl+1
  3149   002508  C004  F008         	movff	___xxtofl@val+2,??___xxtofl+2
  3150   00250C  C005  F009         	movff	___xxtofl@val+3,??___xxtofl+3
  3151   002510  1E06               	comf	??___xxtofl^0,f,c
  3152   002512  1E07               	comf	(??___xxtofl+1)^0,f,c
  3153   002514  1E08               	comf	(??___xxtofl+2)^0,f,c
  3154   002516  1E09               	comf	(??___xxtofl+3)^0,f,c
  3155   002518  2A06               	incf	??___xxtofl^0,f,c
  3156   00251A  0E00               	movlw	0
  3157   00251C  2207               	addwfc	(??___xxtofl+1)^0,f,c
  3158   00251E  2208               	addwfc	(??___xxtofl+2)^0,f,c
  3159   002520  2209               	addwfc	(??___xxtofl+3)^0,f,c
  3160   002522  C006  F00C         	movff	??___xxtofl,___xxtofl@arg
  3161   002526  C007  F00D         	movff	??___xxtofl+1,___xxtofl@arg+1
  3162   00252A  C008  F00E         	movff	??___xxtofl+2,___xxtofl@arg+2
  3163   00252E  C009  F00F         	movff	??___xxtofl+3,___xxtofl@arg+3
  3164   002532  EFA3  F012         	goto	l2516
  3165   002536                     l851:
  3166   002536  C002  F00C         	movff	___xxtofl@val,___xxtofl@arg
  3167   00253A  C003  F00D         	movff	___xxtofl@val+1,___xxtofl@arg+1
  3168   00253E  C004  F00E         	movff	___xxtofl@val+2,___xxtofl@arg+2
  3169   002542  C005  F00F         	movff	___xxtofl@val+3,___xxtofl@arg+3
  3170   002546                     l2516:
  3171   002546  5002               	movf	___xxtofl@val^0,w,c
  3172   002548  1003               	iorwf	(___xxtofl@val+1)^0,w,c
  3173   00254A  1004               	iorwf	(___xxtofl@val+2)^0,w,c
  3174   00254C  1005               	iorwf	(___xxtofl@val+3)^0,w,c
  3175   00254E  A4D8               	btfss	status,2,c
  3176   002550  EFAC  F012         	goto	u2891
  3177   002554  EFAE  F012         	goto	u2890
  3178   002558                     u2891:
  3179   002558  EFB8  F012         	goto	l2522
  3180   00255C                     u2890:
  3181   00255C  0E00               	movlw	0
  3182   00255E  6E02               	movwf	?___xxtofl^0,c
  3183   002560  0E00               	movlw	0
  3184   002562  6E03               	movwf	(?___xxtofl+1)^0,c
  3185   002564  0E00               	movlw	0
  3186   002566  6E04               	movwf	(?___xxtofl+2)^0,c
  3187   002568  0E00               	movlw	0
  3188   00256A  6E05               	movwf	(?___xxtofl+3)^0,c
  3189   00256C  EF49  F013         	goto	l854
  3190   002570                     l2522:
  3191   002570  0E96               	movlw	150
  3192   002572  6E0B               	movwf	___xxtofl@exp^0,c
  3193   002574  EFC2  F012         	goto	l2526
  3194   002578                     l2524:
  3195   002578  2A0B               	incf	___xxtofl@exp^0,f,c
  3196   00257A  90D8               	bcf	status,0,c
  3197   00257C  320F               	rrcf	(___xxtofl@arg+3)^0,f,c
  3198   00257E  320E               	rrcf	(___xxtofl@arg+2)^0,f,c
  3199   002580  320D               	rrcf	(___xxtofl@arg+1)^0,f,c
  3200   002582  320C               	rrcf	___xxtofl@arg^0,f,c
  3201   002584                     l2526:
  3202   002584  0E00               	movlw	0
  3203   002586  140C               	andwf	___xxtofl@arg^0,w,c
  3204   002588  6E06               	movwf	??___xxtofl^0,c
  3205   00258A  0E00               	movlw	0
  3206   00258C  140D               	andwf	(___xxtofl@arg+1)^0,w,c
  3207   00258E  6E07               	movwf	(??___xxtofl+1)^0,c
  3208   002590  0E00               	movlw	0
  3209   002592  140E               	andwf	(___xxtofl@arg+2)^0,w,c
  3210   002594  6E08               	movwf	(??___xxtofl+2)^0,c
  3211   002596  0EFE               	movlw	254
  3212   002598  140F               	andwf	(___xxtofl@arg+3)^0,w,c
  3213   00259A  6E09               	movwf	(??___xxtofl+3)^0,c
  3214   00259C  5006               	movf	??___xxtofl^0,w,c
  3215   00259E  1007               	iorwf	(??___xxtofl+1)^0,w,c
  3216   0025A0  1008               	iorwf	(??___xxtofl+2)^0,w,c
  3217   0025A2  1009               	iorwf	(??___xxtofl+3)^0,w,c
  3218   0025A4  A4D8               	btfss	status,2,c
  3219   0025A6  EFD7  F012         	goto	u2901
  3220   0025AA  EFD9  F012         	goto	u2900
  3221   0025AE                     u2901:
  3222   0025AE  EFBC  F012         	goto	l2524
  3223   0025B2                     u2900:
  3224   0025B2  EFE7  F012         	goto	l858
  3225   0025B6                     l2528:
  3226   0025B6  2A0B               	incf	___xxtofl@exp^0,f,c
  3227   0025B8  0E01               	movlw	1
  3228   0025BA  260C               	addwf	___xxtofl@arg^0,f,c
  3229   0025BC  0E00               	movlw	0
  3230   0025BE  220D               	addwfc	(___xxtofl@arg+1)^0,f,c
  3231   0025C0  220E               	addwfc	(___xxtofl@arg+2)^0,f,c
  3232   0025C2  220F               	addwfc	(___xxtofl@arg+3)^0,f,c
  3233   0025C4  90D8               	bcf	status,0,c
  3234   0025C6  320F               	rrcf	(___xxtofl@arg+3)^0,f,c
  3235   0025C8  320E               	rrcf	(___xxtofl@arg+2)^0,f,c
  3236   0025CA  320D               	rrcf	(___xxtofl@arg+1)^0,f,c
  3237   0025CC  320C               	rrcf	___xxtofl@arg^0,f,c
  3238   0025CE                     l858:
  3239   0025CE  0E00               	movlw	0
  3240   0025D0  140C               	andwf	___xxtofl@arg^0,w,c
  3241   0025D2  6E06               	movwf	??___xxtofl^0,c
  3242   0025D4  0E00               	movlw	0
  3243   0025D6  140D               	andwf	(___xxtofl@arg+1)^0,w,c
  3244   0025D8  6E07               	movwf	(??___xxtofl+1)^0,c
  3245   0025DA  0E00               	movlw	0
  3246   0025DC  140E               	andwf	(___xxtofl@arg+2)^0,w,c
  3247   0025DE  6E08               	movwf	(??___xxtofl+2)^0,c
  3248   0025E0  0EFF               	movlw	255
  3249   0025E2  140F               	andwf	(___xxtofl@arg+3)^0,w,c
  3250   0025E4  6E09               	movwf	(??___xxtofl+3)^0,c
  3251   0025E6  5006               	movf	??___xxtofl^0,w,c
  3252   0025E8  1007               	iorwf	(??___xxtofl+1)^0,w,c
  3253   0025EA  1008               	iorwf	(??___xxtofl+2)^0,w,c
  3254   0025EC  1009               	iorwf	(??___xxtofl+3)^0,w,c
  3255   0025EE  A4D8               	btfss	status,2,c
  3256   0025F0  EFFC  F012         	goto	u2911
  3257   0025F4  EFFE  F012         	goto	u2910
  3258   0025F8                     u2911:
  3259   0025F8  EFDB  F012         	goto	l2528
  3260   0025FC                     u2910:
  3261   0025FC  EF06  F013         	goto	l2536
  3262   002600                     l2534:
  3263   002600  060B               	decf	___xxtofl@exp^0,f,c
  3264   002602  90D8               	bcf	status,0,c
  3265   002604  360C               	rlcf	___xxtofl@arg^0,f,c
  3266   002606  360D               	rlcf	(___xxtofl@arg+1)^0,f,c
  3267   002608  360E               	rlcf	(___xxtofl@arg+2)^0,f,c
  3268   00260A  360F               	rlcf	(___xxtofl@arg+3)^0,f,c
  3269   00260C                     l2536:
  3270   00260C  BE0E               	btfsc	(___xxtofl@arg+2)^0,7,c
  3271   00260E  EF0B  F013         	goto	u2921
  3272   002612  EF0D  F013         	goto	u2920
  3273   002616                     u2921:
  3274   002616  EF15  F013         	goto	l865
  3275   00261A                     u2920:
  3276   00261A  0E02               	movlw	2
  3277   00261C  600B               	cpfslt	___xxtofl@exp^0,c
  3278   00261E  EF13  F013         	goto	u2931
  3279   002622  EF15  F013         	goto	u2930
  3280   002626                     u2931:
  3281   002626  EF00  F013         	goto	l2534
  3282   00262A                     u2930:
  3283   00262A                     l865:
  3284   00262A  B00B               	btfsc	___xxtofl@exp^0,0,c
  3285   00262C  EF1A  F013         	goto	u2941
  3286   002630  EF1C  F013         	goto	u2940
  3287   002634                     u2941:
  3288   002634  EF1D  F013         	goto	l2542
  3289   002638                     u2940:
  3290   002638  9E0E               	bcf	(___xxtofl@arg+2)^0,7,c
  3291   00263A                     l2542:
  3292   00263A  90D8               	bcf	status,0,c
  3293   00263C  320B               	rrcf	___xxtofl@exp^0,f,c
  3294   00263E  C00B  F006         	movff	___xxtofl@exp,??___xxtofl
  3295   002642  6A07               	clrf	(??___xxtofl+1)^0,c
  3296   002644  6A08               	clrf	(??___xxtofl+2)^0,c
  3297   002646  6A09               	clrf	(??___xxtofl+3)^0,c
  3298   002648  C006  F009         	movff	??___xxtofl,??___xxtofl+3
  3299   00264C  6A08               	clrf	(??___xxtofl+2)^0,c
  3300   00264E  6A07               	clrf	(??___xxtofl+1)^0,c
  3301   002650  6A06               	clrf	??___xxtofl^0,c
  3302   002652  5006               	movf	??___xxtofl^0,w,c
  3303   002654  120C               	iorwf	___xxtofl@arg^0,f,c
  3304   002656  5007               	movf	(??___xxtofl+1)^0,w,c
  3305   002658  120D               	iorwf	(___xxtofl@arg+1)^0,f,c
  3306   00265A  5008               	movf	(??___xxtofl+2)^0,w,c
  3307   00265C  120E               	iorwf	(___xxtofl@arg+2)^0,f,c
  3308   00265E  5009               	movf	(??___xxtofl+3)^0,w,c
  3309   002660  120F               	iorwf	(___xxtofl@arg+3)^0,f,c
  3310   002662  500A               	movf	___xxtofl@sign^0,w,c
  3311   002664  B4D8               	btfsc	status,2,c
  3312   002666  EF37  F013         	goto	u2951
  3313   00266A  EF39  F013         	goto	u2950
  3314   00266E                     u2951:
  3315   00266E  EF41  F013         	goto	l2552
  3316   002672                     u2950:
  3317   002672  BE05               	btfsc	(___xxtofl@val+3)^0,7,c
  3318   002674  EF40  F013         	goto	u2960
  3319   002678  EF3E  F013         	goto	u2961
  3320   00267C                     u2961:
  3321   00267C  EF41  F013         	goto	l2552
  3322   002680                     u2960:
  3323   002680  8E0F               	bsf	(___xxtofl@arg+3)^0,7,c
  3324   002682                     l2552:
  3325   002682  C00C  F002         	movff	___xxtofl@arg,?___xxtofl
  3326   002686  C00D  F003         	movff	___xxtofl@arg+1,?___xxtofl+1
  3327   00268A  C00E  F004         	movff	___xxtofl@arg+2,?___xxtofl+2
  3328   00268E  C00F  F005         	movff	___xxtofl@arg+3,?___xxtofl+3
  3329   002692                     l854:
  3330   002692  0012               	return		;funcret
  3331   002694                     __end_of___xxtofl:
  3332                           	callstack 0
  3333                           
  3334 ;; *************** function ___fltol *****************
  3335 ;; Defined at:
  3336 ;;		line 43 in file "C:\Program Files\Microchip\xc8\v2.45\pic\sources\c99\common\fltol.c"
  3337 ;; Parameters:    Size  Location     Type
  3338 ;;  f1              4   67[COMRAM] unsigned char 
  3339 ;; Auto vars:     Size  Location     Type
  3340 ;;  exp1            1   76[COMRAM] unsigned char 
  3341 ;;  sign1           1   75[COMRAM] unsigned char 
  3342 ;; Return value:  Size  Location     Type
  3343 ;;                  4   67[COMRAM] long 
  3344 ;; Registers used:
  3345 ;;		wreg, status,2, status,0
  3346 ;; Tracked objects:
  3347 ;;		On entry : 0/0
  3348 ;;		On exit  : 0/0
  3349 ;;		Unchanged: 0/0
  3350 ;; Data sizes:     COMRAM   BANK0   BANK1   BANK2   BANK3   BANK4   BANK5   BANK6   BANK7
  3351 ;;      Params:         4       0       0       0       0       0       0       0       0
  3352 ;;      Locals:         2       0       0       0       0       0       0       0       0
  3353 ;;      Temps:          4       0       0       0       0       0       0       0       0
  3354 ;;      Totals:        10       0       0       0       0       0       0       0       0
  3355 ;;Total ram usage:       10 bytes
  3356 ;; Hardware stack levels used: 1
  3357 ;; Hardware stack levels required when called: 1
  3358 ;; This function calls:
  3359 ;;		Nothing
  3360 ;; This function is called by:
  3361 ;;		_uart_init
  3362 ;; This function uses a non-reentrant model
  3363 ;;
  3364                           
  3365                           	psect	text10
  3366   0027B2                     __ptext10:
  3367                           	callstack 0
  3368   0027B2                     ___fltol:
  3369                           	callstack 28
  3370   0027B2  3446               	rlcf	(___fltol@f1+2)^0,w,c
  3371   0027B4  3447               	rlcf	(___fltol@f1+3)^0,w,c
  3372   0027B6  6E4D               	movwf	___fltol@exp1^0,c
  3373   0027B8  504D               	movf	___fltol@exp1^0,w,c
  3374   0027BA  A4D8               	btfss	status,2,c
  3375   0027BC  EFE2  F013         	goto	u2801
  3376   0027C0  EFE4  F013         	goto	u2800
  3377   0027C4                     u2801:
  3378   0027C4  EFEE  F013         	goto	l2472
  3379   0027C8                     u2800:
  3380   0027C8                     l2468:
  3381   0027C8  0E00               	movlw	0
  3382   0027CA  6E44               	movwf	?___fltol^0,c
  3383   0027CC  0E00               	movlw	0
  3384   0027CE  6E45               	movwf	(?___fltol+1)^0,c
  3385   0027D0  0E00               	movlw	0
  3386   0027D2  6E46               	movwf	(?___fltol+2)^0,c
  3387   0027D4  0E00               	movlw	0
  3388   0027D6  6E47               	movwf	(?___fltol+3)^0,c
  3389   0027D8  EF5B  F014         	goto	l493
  3390   0027DC                     l2472:
  3391   0027DC  C044  F048         	movff	___fltol@f1,??___fltol
  3392   0027E0  C045  F049         	movff	___fltol@f1+1,??___fltol+1
  3393   0027E4  C046  F04A         	movff	___fltol@f1+2,??___fltol+2
  3394   0027E8  C047  F04B         	movff	___fltol@f1+3,??___fltol+3
  3395   0027EC  0E20               	movlw	32
  3396   0027EE  EFFE  F013         	goto	u2810
  3397   0027F2                     u2815:
  3398   0027F2  90D8               	bcf	status,0,c
  3399   0027F4  324B               	rrcf	(??___fltol+3)^0,f,c
  3400   0027F6  324A               	rrcf	(??___fltol+2)^0,f,c
  3401   0027F8  3249               	rrcf	(??___fltol+1)^0,f,c
  3402   0027FA  3248               	rrcf	??___fltol^0,f,c
  3403   0027FC                     u2810:
  3404   0027FC  2EE8               	decfsz	wreg,f,c
  3405   0027FE  EFF9  F013         	goto	u2815
  3406   002802  5048               	movf	??___fltol^0,w,c
  3407   002804  6E4C               	movwf	___fltol@sign1^0,c
  3408   002806  8E46               	bsf	(___fltol@f1+2)^0,7,c
  3409   002808  0EFF               	movlw	255
  3410   00280A  1644               	andwf	___fltol@f1^0,f,c
  3411   00280C  0EFF               	movlw	255
  3412   00280E  1645               	andwf	(___fltol@f1+1)^0,f,c
  3413   002810  0EFF               	movlw	255
  3414   002812  1646               	andwf	(___fltol@f1+2)^0,f,c
  3415   002814  0E00               	movlw	0
  3416   002816  1647               	andwf	(___fltol@f1+3)^0,f,c
  3417   002818  0E96               	movlw	150
  3418   00281A  5E4D               	subwf	___fltol@exp1^0,f,c
  3419   00281C  BE4D               	btfsc	___fltol@exp1^0,7,c
  3420   00281E  EF15  F014         	goto	u2820
  3421   002822  EF13  F014         	goto	u2821
  3422   002826                     u2821:
  3423   002826  EF2B  F014         	goto	l2492
  3424   00282A                     u2820:
  3425   00282A  504D               	movf	___fltol@exp1^0,w,c
  3426   00282C  0A80               	xorlw	128
  3427   00282E  0F97               	addlw	151
  3428   002830  B0D8               	btfsc	status,0,c
  3429   002832  EF1D  F014         	goto	u2831
  3430   002836  EF1F  F014         	goto	u2830
  3431   00283A                     u2831:
  3432   00283A  EF21  F014         	goto	l2488
  3433   00283E                     u2830:
  3434   00283E  EFE4  F013         	goto	l2468
  3435   002842                     l2488:
  3436   002842  90D8               	bcf	status,0,c
  3437   002844  3247               	rrcf	(___fltol@f1+3)^0,f,c
  3438   002846  3246               	rrcf	(___fltol@f1+2)^0,f,c
  3439   002848  3245               	rrcf	(___fltol@f1+1)^0,f,c
  3440   00284A  3244               	rrcf	___fltol@f1^0,f,c
  3441   00284C  3E4D               	incfsz	___fltol@exp1^0,f,c
  3442   00284E  EF21  F014         	goto	l2488
  3443   002852  EF43  F014         	goto	l2502
  3444   002856                     l2492:
  3445   002856  0E1F               	movlw	31
  3446   002858  644D               	cpfsgt	___fltol@exp1^0,c
  3447   00285A  EF31  F014         	goto	u2841
  3448   00285E  EF33  F014         	goto	u2840
  3449   002862                     u2841:
  3450   002862  EF3B  F014         	goto	l2500
  3451   002866                     u2840:
  3452   002866  EFE4  F013         	goto	l2468
  3453   00286A                     l2498:
  3454   00286A  90D8               	bcf	status,0,c
  3455   00286C  3644               	rlcf	___fltol@f1^0,f,c
  3456   00286E  3645               	rlcf	(___fltol@f1+1)^0,f,c
  3457   002870  3646               	rlcf	(___fltol@f1+2)^0,f,c
  3458   002872  3647               	rlcf	(___fltol@f1+3)^0,f,c
  3459   002874  064D               	decf	___fltol@exp1^0,f,c
  3460   002876                     l2500:
  3461   002876  504D               	movf	___fltol@exp1^0,w,c
  3462   002878  A4D8               	btfss	status,2,c
  3463   00287A  EF41  F014         	goto	u2851
  3464   00287E  EF43  F014         	goto	u2850
  3465   002882                     u2851:
  3466   002882  EF35  F014         	goto	l2498
  3467   002886                     u2850:
  3468   002886                     l2502:
  3469   002886  504C               	movf	___fltol@sign1^0,w,c
  3470   002888  B4D8               	btfsc	status,2,c
  3471   00288A  EF49  F014         	goto	u2861
  3472   00288E  EF4B  F014         	goto	u2860
  3473   002892                     u2861:
  3474   002892  EF53  F014         	goto	l2506
  3475   002896                     u2860:
  3476   002896  1E47               	comf	(___fltol@f1+3)^0,f,c
  3477   002898  1E46               	comf	(___fltol@f1+2)^0,f,c
  3478   00289A  1E45               	comf	(___fltol@f1+1)^0,f,c
  3479   00289C  6C44               	negf	___fltol@f1^0,c
  3480   00289E  0E00               	movlw	0
  3481   0028A0  2245               	addwfc	(___fltol@f1+1)^0,f,c
  3482   0028A2  2246               	addwfc	(___fltol@f1+2)^0,f,c
  3483   0028A4  2247               	addwfc	(___fltol@f1+3)^0,f,c
  3484   0028A6                     l2506:
  3485   0028A6  C044  F044         	movff	___fltol@f1,?___fltol
  3486   0028AA  C045  F045         	movff	___fltol@f1+1,?___fltol+1
  3487   0028AE  C046  F046         	movff	___fltol@f1+2,?___fltol+2
  3488   0028B2  C047  F047         	movff	___fltol@f1+3,?___fltol+3
  3489   0028B6                     l493:
  3490   0028B6  0012               	return		;funcret
  3491   0028B8                     __end_of___fltol:
  3492                           	callstack 0
  3493                           
  3494 ;; *************** function ___flsub *****************
  3495 ;; Defined at:
  3496 ;;		line 245 in file "C:\Program Files\Microchip\xc8\v2.45\pic\sources\c99\common\sprcadd.c"
  3497 ;; Parameters:    Size  Location     Type
  3498 ;;  b               4   67[COMRAM] long 
  3499 ;;  a               4   71[COMRAM] long 
  3500 ;; Auto vars:     Size  Location     Type
  3501 ;;		None
  3502 ;; Return value:  Size  Location     Type
  3503 ;;                  4   67[COMRAM] long 
  3504 ;; Registers used:
  3505 ;;		wreg, status,2, status,0, cstack
  3506 ;; Tracked objects:
  3507 ;;		On entry : 0/0
  3508 ;;		On exit  : 0/0
  3509 ;;		Unchanged: 0/0
  3510 ;; Data sizes:     COMRAM   BANK0   BANK1   BANK2   BANK3   BANK4   BANK5   BANK6   BANK7
  3511 ;;      Params:         8       0       0       0       0       0       0       0       0
  3512 ;;      Locals:         0       0       0       0       0       0       0       0       0
  3513 ;;      Temps:          0       0       0       0       0       0       0       0       0
  3514 ;;      Totals:         8       0       0       0       0       0       0       0       0
  3515 ;;Total ram usage:        8 bytes
  3516 ;; Hardware stack levels used: 1
  3517 ;; Hardware stack levels required when called: 2
  3518 ;; This function calls:
  3519 ;;		___fladd
  3520 ;; This function is called by:
  3521 ;;		_uart_init
  3522 ;; This function uses a non-reentrant model
  3523 ;;
  3524                           
  3525                           	psect	text11
  3526   002EEE                     __ptext11:
  3527                           	callstack 0
  3528   002EEE                     ___flsub:
  3529                           	callstack 27
  3530   002EEE  0E00               	movlw	0
  3531   002EF0  1A48               	xorwf	___flsub@a^0,f,c
  3532   002EF2  0E00               	movlw	0
  3533   002EF4  1A49               	xorwf	(___flsub@a+1)^0,f,c
  3534   002EF6  0E00               	movlw	0
  3535   002EF8  1A4A               	xorwf	(___flsub@a+2)^0,f,c
  3536   002EFA  0E80               	movlw	128
  3537   002EFC  1A4B               	xorwf	(___flsub@a+3)^0,f,c
  3538   002EFE  C044  F034         	movff	___flsub@b,___fladd@b
  3539   002F02  C045  F035         	movff	___flsub@b+1,___fladd@b+1
  3540   002F06  C046  F036         	movff	___flsub@b+2,___fladd@b+2
  3541   002F0A  C047  F037         	movff	___flsub@b+3,___fladd@b+3
  3542   002F0E  C048  F038         	movff	___flsub@a,___fladd@a
  3543   002F12  C049  F039         	movff	___flsub@a+1,___fladd@a+1
  3544   002F16  C04A  F03A         	movff	___flsub@a+2,___fladd@a+2
  3545   002F1A  C04B  F03B         	movff	___flsub@a+3,___fladd@a+3
  3546   002F1E  EC2E  F00C         	call	___fladd	;wreg free
  3547   002F22  C034  F044         	movff	?___fladd,?___flsub
  3548   002F26  C035  F045         	movff	?___fladd+1,?___flsub+1
  3549   002F2A  C036  F046         	movff	?___fladd+2,?___flsub+2
  3550   002F2E  C037  F047         	movff	?___fladd+3,?___flsub+3
  3551   002F32  0012               	return		;funcret
  3552   002F34                     __end_of___flsub:
  3553                           	callstack 0
  3554                           
  3555 ;; *************** function ___fladd *****************
  3556 ;; Defined at:
  3557 ;;		line 10 in file "C:\Program Files\Microchip\xc8\v2.45\pic\sources\c99\common\sprcadd.c"
  3558 ;; Parameters:    Size  Location     Type
  3559 ;;  b               4   51[COMRAM] long 
  3560 ;;  a               4   55[COMRAM] long 
  3561 ;; Auto vars:     Size  Location     Type
  3562 ;;  grs             1   66[COMRAM] unsigned char 
  3563 ;;  bexp            1   65[COMRAM] unsigned char 
  3564 ;;  aexp            1   64[COMRAM] unsigned char 
  3565 ;;  signs           1   63[COMRAM] unsigned char 
  3566 ;; Return value:  Size  Location     Type
  3567 ;;                  4   51[COMRAM] unsigned char 
  3568 ;; Registers used:
  3569 ;;		wreg, status,2, status,0
  3570 ;; Tracked objects:
  3571 ;;		On entry : 0/0
  3572 ;;		On exit  : 0/0
  3573 ;;		Unchanged: 0/0
  3574 ;; Data sizes:     COMRAM   BANK0   BANK1   BANK2   BANK3   BANK4   BANK5   BANK6   BANK7
  3575 ;;      Params:         8       0       0       0       0       0       0       0       0
  3576 ;;      Locals:         4       0       0       0       0       0       0       0       0
  3577 ;;      Temps:          4       0       0       0       0       0       0       0       0
  3578 ;;      Totals:        16       0       0       0       0       0       0       0       0
  3579 ;;Total ram usage:       16 bytes
  3580 ;; Hardware stack levels used: 1
  3581 ;; Hardware stack levels required when called: 1
  3582 ;; This function calls:
  3583 ;;		Nothing
  3584 ;; This function is called by:
  3585 ;;		_uart_init
  3586 ;;		___flsub
  3587 ;; This function uses a non-reentrant model
  3588 ;;
  3589                           
  3590                           	psect	text12
  3591   00185C                     __ptext12:
  3592                           	callstack 0
  3593   00185C                     ___fladd:
  3594                           	callstack 27
  3595   00185C  5037               	movf	(___fladd@b+3)^0,w,c
  3596   00185E  0B80               	andlw	128
  3597   001860  6E40               	movwf	___fladd@signs^0,c
  3598   001862  5037               	movf	(___fladd@b+3)^0,w,c
  3599   001864  2437               	addwf	(___fladd@b+3)^0,w,c
  3600   001866  6E42               	movwf	___fladd@bexp^0,c
  3601   001868  AE36               	btfss	(___fladd@b+2)^0,7,c
  3602   00186A  EF39  F00C         	goto	u1761
  3603   00186E  EF3B  F00C         	goto	u1760
  3604   001872                     u1761:
  3605   001872  EF3C  F00C         	goto	l1862
  3606   001876                     u1760:
  3607   001876  8042               	bsf	___fladd@bexp^0,0,c
  3608   001878                     l1862:
  3609   001878  5042               	movf	___fladd@bexp^0,w,c
  3610   00187A  B4D8               	btfsc	status,2,c
  3611   00187C  EF42  F00C         	goto	u1771
  3612   001880  EF44  F00C         	goto	u1770
  3613   001884                     u1771:
  3614   001884  EF59  F00C         	goto	l1872
  3615   001888                     u1770:
  3616   001888  2842               	incf	___fladd@bexp^0,w,c
  3617   00188A  A4D8               	btfss	status,2,c
  3618   00188C  EF4A  F00C         	goto	u1781
  3619   001890  EF4C  F00C         	goto	u1780
  3620   001894                     u1781:
  3621   001894  EF54  F00C         	goto	l1868
  3622   001898                     u1780:
  3623   001898  0E00               	movlw	0
  3624   00189A  6E34               	movwf	___fladd@b^0,c
  3625   00189C  0E00               	movlw	0
  3626   00189E  6E35               	movwf	(___fladd@b+1)^0,c
  3627   0018A0  0E00               	movlw	0
  3628   0018A2  6E36               	movwf	(___fladd@b+2)^0,c
  3629   0018A4  0E00               	movlw	0
  3630   0018A6  6E37               	movwf	(___fladd@b+3)^0,c
  3631   0018A8                     l1868:
  3632   0018A8  8E36               	bsf	(___fladd@b+2)^0,7,c
  3633   0018AA  0E00               	movlw	0
  3634   0018AC  6E37               	movwf	(___fladd@b+3)^0,c
  3635   0018AE  EF61  F00C         	goto	l1874
  3636   0018B2                     l1872:
  3637   0018B2  0E00               	movlw	0
  3638   0018B4  6E34               	movwf	___fladd@b^0,c
  3639   0018B6  0E00               	movlw	0
  3640   0018B8  6E35               	movwf	(___fladd@b+1)^0,c
  3641   0018BA  0E00               	movlw	0
  3642   0018BC  6E36               	movwf	(___fladd@b+2)^0,c
  3643   0018BE  0E00               	movlw	0
  3644   0018C0  6E37               	movwf	(___fladd@b+3)^0,c
  3645   0018C2                     l1874:
  3646   0018C2  503B               	movf	(___fladd@a+3)^0,w,c
  3647   0018C4  0B80               	andlw	128
  3648   0018C6  6E41               	movwf	___fladd@aexp^0,c
  3649   0018C8  5040               	movf	___fladd@signs^0,w,c
  3650   0018CA  1841               	xorwf	___fladd@aexp^0,w,c
  3651   0018CC  B4D8               	btfsc	status,2,c
  3652   0018CE  EF6B  F00C         	goto	u1791
  3653   0018D2  EF6D  F00C         	goto	u1790
  3654   0018D6                     u1791:
  3655   0018D6  EF6E  F00C         	goto	l1880
  3656   0018DA                     u1790:
  3657   0018DA  8C40               	bsf	___fladd@signs^0,6,c
  3658   0018DC                     l1880:
  3659   0018DC  503B               	movf	(___fladd@a+3)^0,w,c
  3660   0018DE  243B               	addwf	(___fladd@a+3)^0,w,c
  3661   0018E0  6E41               	movwf	___fladd@aexp^0,c
  3662   0018E2  AE3A               	btfss	(___fladd@a+2)^0,7,c
  3663   0018E4  EF76  F00C         	goto	u1801
  3664   0018E8  EF78  F00C         	goto	u1800
  3665   0018EC                     u1801:
  3666   0018EC  EF79  F00C         	goto	l1886
  3667   0018F0                     u1800:
  3668   0018F0  8041               	bsf	___fladd@aexp^0,0,c
  3669   0018F2                     l1886:
  3670   0018F2  5041               	movf	___fladd@aexp^0,w,c
  3671   0018F4  B4D8               	btfsc	status,2,c
  3672   0018F6  EF7F  F00C         	goto	u1811
  3673   0018FA  EF81  F00C         	goto	u1810
  3674   0018FE                     u1811:
  3675   0018FE  EF96  F00C         	goto	l1896
  3676   001902                     u1810:
  3677   001902  2841               	incf	___fladd@aexp^0,w,c
  3678   001904  A4D8               	btfss	status,2,c
  3679   001906  EF87  F00C         	goto	u1821
  3680   00190A  EF89  F00C         	goto	u1820
  3681   00190E                     u1821:
  3682   00190E  EF91  F00C         	goto	l1892
  3683   001912                     u1820:
  3684   001912  0E00               	movlw	0
  3685   001914  6E38               	movwf	___fladd@a^0,c
  3686   001916  0E00               	movlw	0
  3687   001918  6E39               	movwf	(___fladd@a+1)^0,c
  3688   00191A  0E00               	movlw	0
  3689   00191C  6E3A               	movwf	(___fladd@a+2)^0,c
  3690   00191E  0E00               	movlw	0
  3691   001920  6E3B               	movwf	(___fladd@a+3)^0,c
  3692   001922                     l1892:
  3693   001922  8E3A               	bsf	(___fladd@a+2)^0,7,c
  3694   001924  0E00               	movlw	0
  3695   001926  6E3B               	movwf	(___fladd@a+3)^0,c
  3696   001928  EF9E  F00C         	goto	l1898
  3697   00192C                     l1896:
  3698   00192C  0E00               	movlw	0
  3699   00192E  6E38               	movwf	___fladd@a^0,c
  3700   001930  0E00               	movlw	0
  3701   001932  6E39               	movwf	(___fladd@a+1)^0,c
  3702   001934  0E00               	movlw	0
  3703   001936  6E3A               	movwf	(___fladd@a+2)^0,c
  3704   001938  0E00               	movlw	0
  3705   00193A  6E3B               	movwf	(___fladd@a+3)^0,c
  3706   00193C                     l1898:
  3707   00193C  5042               	movf	___fladd@bexp^0,w,c
  3708   00193E  5C41               	subwf	___fladd@aexp^0,w,c
  3709   001940  B0D8               	btfsc	status,0,c
  3710   001942  EFA5  F00C         	goto	u1831
  3711   001946  EFA7  F00C         	goto	u1830
  3712   00194A                     u1831:
  3713   00194A  EFCE  F00C         	goto	l1934
  3714   00194E                     u1830:
  3715   00194E  AC40               	btfss	___fladd@signs^0,6,c
  3716   001950  EFAC  F00C         	goto	u1841
  3717   001954  EFAE  F00C         	goto	u1840
  3718   001958                     u1841:
  3719   001958  EFB0  F00C         	goto	l1904
  3720   00195C                     u1840:
  3721   00195C  0E80               	movlw	128
  3722   00195E  1A40               	xorwf	___fladd@signs^0,f,c
  3723   001960                     l1904:
  3724   001960  C042  F043         	movff	___fladd@bexp,___fladd@grs
  3725   001964  C041  F042         	movff	___fladd@aexp,___fladd@bexp
  3726   001968  C043  F041         	movff	___fladd@grs,___fladd@aexp
  3727   00196C  C034  F043         	movff	___fladd@b,___fladd@grs
  3728   001970  C038  F034         	movff	___fladd@a,___fladd@b
  3729   001974  C043  F038         	movff	___fladd@grs,___fladd@a
  3730   001978  C035  F043         	movff	___fladd@b+1,___fladd@grs
  3731   00197C  C039  F035         	movff	___fladd@a+1,___fladd@b+1
  3732   001980  C043  F039         	movff	___fladd@grs,___fladd@a+1
  3733   001984  C036  F043         	movff	___fladd@b+2,___fladd@grs
  3734   001988  C03A  F036         	movff	___fladd@a+2,___fladd@b+2
  3735   00198C  C043  F03A         	movff	___fladd@grs,___fladd@a+2
  3736   001990  C037  F043         	movff	___fladd@b+3,___fladd@grs
  3737   001994  C03B  F037         	movff	___fladd@a+3,___fladd@b+3
  3738   001998  C043  F03B         	movff	___fladd@grs,___fladd@a+3
  3739   00199C                     l1934:
  3740   00199C  0E00               	movlw	0
  3741   00199E  6E43               	movwf	___fladd@grs^0,c
  3742   0019A0  5042               	movf	___fladd@bexp^0,w,c
  3743   0019A2  C041  F03C         	movff	___fladd@aexp,??___fladd
  3744   0019A6  6A3D               	clrf	(??___fladd+1)^0,c
  3745   0019A8  5E3C               	subwf	??___fladd^0,f,c
  3746   0019AA  0E00               	movlw	0
  3747   0019AC  5A3D               	subwfb	(??___fladd+1)^0,f,c
  3748   0019AE  BE3D               	btfsc	(??___fladd+1)^0,7,c
  3749   0019B0  EFE3  F00C         	goto	u1851
  3750   0019B4  503D               	movf	(??___fladd+1)^0,w,c
  3751   0019B6  E109               	bnz	u1850
  3752   0019B8  0E1A               	movlw	26
  3753   0019BA  5C3C               	subwf	??___fladd^0,w,c
  3754   0019BC  A0D8               	btfss	status,0,c
  3755   0019BE  EFE3  F00C         	goto	u1851
  3756   0019C2  EFE5  F00C         	goto	u1850
  3757   0019C6                     u1851:
  3758   0019C6  EF1C  F00D         	goto	l725
  3759   0019CA                     u1850:
  3760   0019CA  5034               	movf	___fladd@b^0,w,c
  3761   0019CC  1035               	iorwf	(___fladd@b+1)^0,w,c
  3762   0019CE  1036               	iorwf	(___fladd@b+2)^0,w,c
  3763   0019D0  1037               	iorwf	(___fladd@b+3)^0,w,c
  3764   0019D2  A4D8               	btfss	status,2,c
  3765   0019D4  EFEE  F00C         	goto	u1861
  3766   0019D8  EFF1  F00C         	goto	u1860
  3767   0019DC                     u1861:
  3768   0019DC  0E01               	movlw	1
  3769   0019DE  EFF2  F00C         	goto	u1870
  3770   0019E2                     u1860:
  3771   0019E2  0E00               	movlw	0
  3772   0019E4                     u1870:
  3773   0019E4  6E43               	movwf	___fladd@grs^0,c
  3774   0019E6  0E00               	movlw	0
  3775   0019E8  6E34               	movwf	___fladd@b^0,c
  3776   0019EA  0E00               	movlw	0
  3777   0019EC  6E35               	movwf	(___fladd@b+1)^0,c
  3778   0019EE  0E00               	movlw	0
  3779   0019F0  6E36               	movwf	(___fladd@b+2)^0,c
  3780   0019F2  0E00               	movlw	0
  3781   0019F4  6E37               	movwf	(___fladd@b+3)^0,c
  3782   0019F6  C041  F042         	movff	___fladd@aexp,___fladd@bexp
  3783   0019FA  EF25  F00D         	goto	l724
  3784   0019FE                     l726:
  3785   0019FE  A043               	btfss	___fladd@grs^0,0,c
  3786   001A00  EF04  F00D         	goto	u1881
  3787   001A04  EF06  F00D         	goto	u1880
  3788   001A08                     u1881:
  3789   001A08  EF0C  F00D         	goto	l1946
  3790   001A0C                     u1880:
  3791   001A0C  90D8               	bcf	status,0,c
  3792   001A0E  3043               	rrcf	___fladd@grs^0,w,c
  3793   001A10  0901               	iorlw	1
  3794   001A12  6E43               	movwf	___fladd@grs^0,c
  3795   001A14  EF0E  F00D         	goto	l1948
  3796   001A18                     l1946:
  3797   001A18  90D8               	bcf	status,0,c
  3798   001A1A  3243               	rrcf	___fladd@grs^0,f,c
  3799   001A1C                     l1948:
  3800   001A1C  A034               	btfss	___fladd@b^0,0,c
  3801   001A1E  EF13  F00D         	goto	u1891
  3802   001A22  EF15  F00D         	goto	u1890
  3803   001A26                     u1891:
  3804   001A26  EF16  F00D         	goto	l1952
  3805   001A2A                     u1890:
  3806   001A2A  8E43               	bsf	___fladd@grs^0,7,c
  3807   001A2C                     l1952:
  3808   001A2C  3437               	rlcf	(___fladd@b+3)^0,w,c
  3809   001A2E  3237               	rrcf	(___fladd@b+3)^0,f,c
  3810   001A30  3236               	rrcf	(___fladd@b+2)^0,f,c
  3811   001A32  3235               	rrcf	(___fladd@b+1)^0,f,c
  3812   001A34  3234               	rrcf	___fladd@b^0,f,c
  3813   001A36  2A42               	incf	___fladd@bexp^0,f,c
  3814   001A38                     l725:
  3815   001A38  5041               	movf	___fladd@aexp^0,w,c
  3816   001A3A  5C42               	subwf	___fladd@bexp^0,w,c
  3817   001A3C  A0D8               	btfss	status,0,c
  3818   001A3E  EF23  F00D         	goto	u1901
  3819   001A42  EF25  F00D         	goto	u1900
  3820   001A46                     u1901:
  3821   001A46  EFFF  F00C         	goto	l726
  3822   001A4A                     u1900:
  3823   001A4A                     l724:
  3824   001A4A  BC40               	btfsc	___fladd@signs^0,6,c
  3825   001A4C  EF2A  F00D         	goto	u1911
  3826   001A50  EF2C  F00D         	goto	u1910
  3827   001A54                     u1911:
  3828   001A54  EF6C  F00D         	goto	l1980
  3829   001A58                     u1910:
  3830   001A58  5042               	movf	___fladd@bexp^0,w,c
  3831   001A5A  A4D8               	btfss	status,2,c
  3832   001A5C  EF32  F00D         	goto	u1921
  3833   001A60  EF34  F00D         	goto	u1920
  3834   001A64                     u1921:
  3835   001A64  EF3E  F00D         	goto	l1962
  3836   001A68                     u1920:
  3837   001A68  0E00               	movlw	0
  3838   001A6A  6E34               	movwf	?___fladd^0,c
  3839   001A6C  0E00               	movlw	0
  3840   001A6E  6E35               	movwf	(?___fladd+1)^0,c
  3841   001A70  0E00               	movlw	0
  3842   001A72  6E36               	movwf	(?___fladd+2)^0,c
  3843   001A74  0E00               	movlw	0
  3844   001A76  6E37               	movwf	(?___fladd+3)^0,c
  3845   001A78  EF8D  F00E         	goto	l733
  3846   001A7C                     l1962:
  3847   001A7C  5038               	movf	___fladd@a^0,w,c
  3848   001A7E  2634               	addwf	___fladd@b^0,f,c
  3849   001A80  5039               	movf	(___fladd@a+1)^0,w,c
  3850   001A82  2235               	addwfc	(___fladd@b+1)^0,f,c
  3851   001A84  503A               	movf	(___fladd@a+2)^0,w,c
  3852   001A86  2236               	addwfc	(___fladd@b+2)^0,f,c
  3853   001A88  503B               	movf	(___fladd@a+3)^0,w,c
  3854   001A8A  2237               	addwfc	(___fladd@b+3)^0,f,c
  3855   001A8C  A037               	btfss	(___fladd@b+3)^0,0,c
  3856   001A8E  EF4B  F00D         	goto	u1931
  3857   001A92  EF4D  F00D         	goto	u1930
  3858   001A96                     u1931:
  3859   001A96  EFF9  F00D         	goto	l2016
  3860   001A9A                     u1930:
  3861   001A9A  A043               	btfss	___fladd@grs^0,0,c
  3862   001A9C  EF52  F00D         	goto	u1941
  3863   001AA0  EF54  F00D         	goto	u1940
  3864   001AA4                     u1941:
  3865   001AA4  EF5A  F00D         	goto	l1970
  3866   001AA8                     u1940:
  3867   001AA8  90D8               	bcf	status,0,c
  3868   001AAA  3043               	rrcf	___fladd@grs^0,w,c
  3869   001AAC  0901               	iorlw	1
  3870   001AAE  6E43               	movwf	___fladd@grs^0,c
  3871   001AB0  EF5C  F00D         	goto	l1972
  3872   001AB4                     l1970:
  3873   001AB4  90D8               	bcf	status,0,c
  3874   001AB6  3243               	rrcf	___fladd@grs^0,f,c
  3875   001AB8                     l1972:
  3876   001AB8  A034               	btfss	___fladd@b^0,0,c
  3877   001ABA  EF61  F00D         	goto	u1951
  3878   001ABE  EF63  F00D         	goto	u1950
  3879   001AC2                     u1951:
  3880   001AC2  EF64  F00D         	goto	l1976
  3881   001AC6                     u1950:
  3882   001AC6  8E43               	bsf	___fladd@grs^0,7,c
  3883   001AC8                     l1976:
  3884   001AC8  3437               	rlcf	(___fladd@b+3)^0,w,c
  3885   001ACA  3237               	rrcf	(___fladd@b+3)^0,f,c
  3886   001ACC  3236               	rrcf	(___fladd@b+2)^0,f,c
  3887   001ACE  3235               	rrcf	(___fladd@b+1)^0,f,c
  3888   001AD0  3234               	rrcf	___fladd@b^0,f,c
  3889   001AD2  2A42               	incf	___fladd@bexp^0,f,c
  3890   001AD4  EFF9  F00D         	goto	l2016
  3891   001AD8                     l1980:
  3892   001AD8  5038               	movf	___fladd@a^0,w,c
  3893   001ADA  5C34               	subwf	___fladd@b^0,w,c
  3894   001ADC  5039               	movf	(___fladd@a+1)^0,w,c
  3895   001ADE  5835               	subwfb	(___fladd@b+1)^0,w,c
  3896   001AE0  503A               	movf	(___fladd@a+2)^0,w,c
  3897   001AE2  5836               	subwfb	(___fladd@b+2)^0,w,c
  3898   001AE4  5037               	movf	(___fladd@b+3)^0,w,c
  3899   001AE6  0A80               	xorlw	128
  3900   001AE8  6E3C               	movwf	??___fladd^0,c
  3901   001AEA  503B               	movf	(___fladd@a+3)^0,w,c
  3902   001AEC  0A80               	xorlw	128
  3903   001AEE  583C               	subwfb	??___fladd^0,w,c
  3904   001AF0  B0D8               	btfsc	status,0,c
  3905   001AF2  EF7D  F00D         	goto	u1961
  3906   001AF6  EF7F  F00D         	goto	u1960
  3907   001AFA                     u1961:
  3908   001AFA  EFAA  F00D         	goto	l1990
  3909   001AFE                     u1960:
  3910   001AFE  5034               	movf	___fladd@b^0,w,c
  3911   001B00  5C38               	subwf	___fladd@a^0,w,c
  3912   001B02  6E3C               	movwf	??___fladd^0,c
  3913   001B04  5035               	movf	(___fladd@b+1)^0,w,c
  3914   001B06  5839               	subwfb	(___fladd@a+1)^0,w,c
  3915   001B08  6E3D               	movwf	(??___fladd+1)^0,c
  3916   001B0A  5036               	movf	(___fladd@b+2)^0,w,c
  3917   001B0C  583A               	subwfb	(___fladd@a+2)^0,w,c
  3918   001B0E  6E3E               	movwf	(??___fladd+2)^0,c
  3919   001B10  5037               	movf	(___fladd@b+3)^0,w,c
  3920   001B12  583B               	subwfb	(___fladd@a+3)^0,w,c
  3921   001B14  6E3F               	movwf	(??___fladd+3)^0,c
  3922   001B16  0EFF               	movlw	255
  3923   001B18  243C               	addwf	??___fladd^0,w,c
  3924   001B1A  6E34               	movwf	___fladd@b^0,c
  3925   001B1C  0EFF               	movlw	255
  3926   001B1E  203D               	addwfc	(??___fladd+1)^0,w,c
  3927   001B20  6E35               	movwf	(___fladd@b+1)^0,c
  3928   001B22  0EFF               	movlw	255
  3929   001B24  203E               	addwfc	(??___fladd+2)^0,w,c
  3930   001B26  6E36               	movwf	(___fladd@b+2)^0,c
  3931   001B28  0EFF               	movlw	255
  3932   001B2A  203F               	addwfc	(??___fladd+3)^0,w,c
  3933   001B2C  6E37               	movwf	(___fladd@b+3)^0,c
  3934   001B2E  0E80               	movlw	128
  3935   001B30  1A40               	xorwf	___fladd@signs^0,f,c
  3936   001B32  6C43               	negf	___fladd@grs^0,c
  3937   001B34  5043               	movf	___fladd@grs^0,w,c
  3938   001B36  A4D8               	btfss	status,2,c
  3939   001B38  EFA0  F00D         	goto	u1971
  3940   001B3C  EFA2  F00D         	goto	u1970
  3941   001B40                     u1971:
  3942   001B40  EFB2  F00D         	goto	l741
  3943   001B44                     u1970:
  3944   001B44  0E01               	movlw	1
  3945   001B46  2634               	addwf	___fladd@b^0,f,c
  3946   001B48  0E00               	movlw	0
  3947   001B4A  2235               	addwfc	(___fladd@b+1)^0,f,c
  3948   001B4C  2236               	addwfc	(___fladd@b+2)^0,f,c
  3949   001B4E  2237               	addwfc	(___fladd@b+3)^0,f,c
  3950   001B50  EFB2  F00D         	goto	l741
  3951   001B54                     l1990:
  3952   001B54  5038               	movf	___fladd@a^0,w,c
  3953   001B56  5E34               	subwf	___fladd@b^0,f,c
  3954   001B58  5039               	movf	(___fladd@a+1)^0,w,c
  3955   001B5A  5A35               	subwfb	(___fladd@b+1)^0,f,c
  3956   001B5C  503A               	movf	(___fladd@a+2)^0,w,c
  3957   001B5E  5A36               	subwfb	(___fladd@b+2)^0,f,c
  3958   001B60  503B               	movf	(___fladd@a+3)^0,w,c
  3959   001B62  5A37               	subwfb	(___fladd@b+3)^0,f,c
  3960   001B64                     l741:
  3961   001B64  5034               	movf	___fladd@b^0,w,c
  3962   001B66  1035               	iorwf	(___fladd@b+1)^0,w,c
  3963   001B68  1036               	iorwf	(___fladd@b+2)^0,w,c
  3964   001B6A  1037               	iorwf	(___fladd@b+3)^0,w,c
  3965   001B6C  A4D8               	btfss	status,2,c
  3966   001B6E  EFBB  F00D         	goto	u1981
  3967   001B72  EFBD  F00D         	goto	u1980
  3968   001B76                     u1981:
  3969   001B76  EFF2  F00D         	goto	l2014
  3970   001B7A                     u1980:
  3971   001B7A  5043               	movf	___fladd@grs^0,w,c
  3972   001B7C  A4D8               	btfss	status,2,c
  3973   001B7E  EFC3  F00D         	goto	u1991
  3974   001B82  EFC5  F00D         	goto	u1990
  3975   001B86                     u1991:
  3976   001B86  EFF2  F00D         	goto	l2014
  3977   001B8A                     u1990:
  3978   001B8A  0E00               	movlw	0
  3979   001B8C  6E34               	movwf	?___fladd^0,c
  3980   001B8E  0E00               	movlw	0
  3981   001B90  6E35               	movwf	(?___fladd+1)^0,c
  3982   001B92  0E00               	movlw	0
  3983   001B94  6E36               	movwf	(?___fladd+2)^0,c
  3984   001B96  0E00               	movlw	0
  3985   001B98  6E37               	movwf	(?___fladd+3)^0,c
  3986   001B9A  EF8D  F00E         	goto	l733
  3987   001B9E                     l1998:
  3988   001B9E  90D8               	bcf	status,0,c
  3989   001BA0  3634               	rlcf	___fladd@b^0,f,c
  3990   001BA2  3635               	rlcf	(___fladd@b+1)^0,f,c
  3991   001BA4  3636               	rlcf	(___fladd@b+2)^0,f,c
  3992   001BA6  3637               	rlcf	(___fladd@b+3)^0,f,c
  3993   001BA8  AE43               	btfss	___fladd@grs^0,7,c
  3994   001BAA  EFD9  F00D         	goto	u2001
  3995   001BAE  EFDB  F00D         	goto	u2000
  3996   001BB2                     u2001:
  3997   001BB2  EFDC  F00D         	goto	l2004
  3998   001BB6                     u2000:
  3999   001BB6  8034               	bsf	___fladd@b^0,0,c
  4000   001BB8                     l2004:
  4001   001BB8  A043               	btfss	___fladd@grs^0,0,c
  4002   001BBA  EFE1  F00D         	goto	u2011
  4003   001BBE  EFE3  F00D         	goto	u2010
  4004   001BC2                     u2011:
  4005   001BC2  EFE7  F00D         	goto	l2008
  4006   001BC6                     u2010:
  4007   001BC6  80D8               	bsf	status,0,c
  4008   001BC8  3643               	rlcf	___fladd@grs^0,f,c
  4009   001BCA  EFE9  F00D         	goto	l2010
  4010   001BCE                     l2008:
  4011   001BCE  90D8               	bcf	status,0,c
  4012   001BD0  3643               	rlcf	___fladd@grs^0,f,c
  4013   001BD2                     l2010:
  4014   001BD2  5042               	movf	___fladd@bexp^0,w,c
  4015   001BD4  B4D8               	btfsc	status,2,c
  4016   001BD6  EFEF  F00D         	goto	u2021
  4017   001BDA  EFF1  F00D         	goto	u2020
  4018   001BDE                     u2021:
  4019   001BDE  EFF2  F00D         	goto	l2014
  4020   001BE2                     u2020:
  4021   001BE2  0642               	decf	___fladd@bexp^0,f,c
  4022   001BE4                     l2014:
  4023   001BE4  AE36               	btfss	(___fladd@b+2)^0,7,c
  4024   001BE6  EFF7  F00D         	goto	u2031
  4025   001BEA  EFF9  F00D         	goto	u2030
  4026   001BEE                     u2031:
  4027   001BEE  EFCF  F00D         	goto	l1998
  4028   001BF2                     u2030:
  4029   001BF2                     l2016:
  4030   001BF2  0E00               	movlw	0
  4031   001BF4  6E41               	movwf	___fladd@aexp^0,c
  4032   001BF6  AE43               	btfss	___fladd@grs^0,7,c
  4033   001BF8  EF00  F00E         	goto	u2041
  4034   001BFC  EF02  F00E         	goto	u2040
  4035   001C00                     u2041:
  4036   001C00  EF1A  F00E         	goto	l750
  4037   001C04                     u2040:
  4038   001C04  C043  F03C         	movff	___fladd@grs,??___fladd
  4039   001C08  0E7F               	movlw	127
  4040   001C0A  163C               	andwf	??___fladd^0,f,c
  4041   001C0C  B4D8               	btfsc	status,2,c
  4042   001C0E  EF0B  F00E         	goto	u2051
  4043   001C12  EF0D  F00E         	goto	u2050
  4044   001C16                     u2051:
  4045   001C16  EF11  F00E         	goto	l751
  4046   001C1A                     u2050:
  4047   001C1A                     l2022:
  4048   001C1A  0E01               	movlw	1
  4049   001C1C  6E41               	movwf	___fladd@aexp^0,c
  4050   001C1E  EF1A  F00E         	goto	l750
  4051   001C22                     l751:
  4052   001C22  A034               	btfss	___fladd@b^0,0,c
  4053   001C24  EF16  F00E         	goto	u2061
  4054   001C28  EF18  F00E         	goto	u2060
  4055   001C2C                     u2061:
  4056   001C2C  EF1A  F00E         	goto	l750
  4057   001C30                     u2060:
  4058   001C30  EF0D  F00E         	goto	l2022
  4059   001C34                     l750:
  4060   001C34  5041               	movf	___fladd@aexp^0,w,c
  4061   001C36  B4D8               	btfsc	status,2,c
  4062   001C38  EF20  F00E         	goto	u2071
  4063   001C3C  EF22  F00E         	goto	u2070
  4064   001C40                     u2071:
  4065   001C40  EF4D  F00E         	goto	l2034
  4066   001C44                     u2070:
  4067   001C44  0E01               	movlw	1
  4068   001C46  2634               	addwf	___fladd@b^0,f,c
  4069   001C48  0E00               	movlw	0
  4070   001C4A  2235               	addwfc	(___fladd@b+1)^0,f,c
  4071   001C4C  2236               	addwfc	(___fladd@b+2)^0,f,c
  4072   001C4E  2237               	addwfc	(___fladd@b+3)^0,f,c
  4073   001C50  A037               	btfss	(___fladd@b+3)^0,0,c
  4074   001C52  EF2D  F00E         	goto	u2081
  4075   001C56  EF2F  F00E         	goto	u2080
  4076   001C5A                     u2081:
  4077   001C5A  EF4D  F00E         	goto	l2034
  4078   001C5E                     u2080:
  4079   001C5E  C034  F03C         	movff	___fladd@b,??___fladd
  4080   001C62  C035  F03D         	movff	___fladd@b+1,??___fladd+1
  4081   001C66  C036  F03E         	movff	___fladd@b+2,??___fladd+2
  4082   001C6A  C037  F03F         	movff	___fladd@b+3,??___fladd+3
  4083   001C6E  343F               	rlcf	(??___fladd+3)^0,w,c
  4084   001C70  323F               	rrcf	(??___fladd+3)^0,f,c
  4085   001C72  323E               	rrcf	(??___fladd+2)^0,f,c
  4086   001C74  323D               	rrcf	(??___fladd+1)^0,f,c
  4087   001C76  323C               	rrcf	??___fladd^0,f,c
  4088   001C78  C03C  F034         	movff	??___fladd,___fladd@b
  4089   001C7C  C03D  F035         	movff	??___fladd+1,___fladd@b+1
  4090   001C80  C03E  F036         	movff	??___fladd+2,___fladd@b+2
  4091   001C84  C03F  F037         	movff	??___fladd+3,___fladd@b+3
  4092   001C88  2842               	incf	___fladd@bexp^0,w,c
  4093   001C8A  B4D8               	btfsc	status,2,c
  4094   001C8C  EF4A  F00E         	goto	u2091
  4095   001C90  EF4C  F00E         	goto	u2090
  4096   001C94                     u2091:
  4097   001C94  EF4D  F00E         	goto	l2034
  4098   001C98                     u2090:
  4099   001C98  2A42               	incf	___fladd@bexp^0,f,c
  4100   001C9A                     l2034:
  4101   001C9A  2842               	incf	___fladd@bexp^0,w,c
  4102   001C9C  B4D8               	btfsc	status,2,c
  4103   001C9E  EF53  F00E         	goto	u2101
  4104   001CA2  EF55  F00E         	goto	u2100
  4105   001CA6                     u2101:
  4106   001CA6  EF5D  F00E         	goto	l2038
  4107   001CAA                     u2100:
  4108   001CAA  5042               	movf	___fladd@bexp^0,w,c
  4109   001CAC  A4D8               	btfss	status,2,c
  4110   001CAE  EF5B  F00E         	goto	u2111
  4111   001CB2  EF5D  F00E         	goto	u2110
  4112   001CB6                     u2111:
  4113   001CB6  EF6F  F00E         	goto	l2042
  4114   001CBA                     u2110:
  4115   001CBA                     l2038:
  4116   001CBA  0E00               	movlw	0
  4117   001CBC  6E34               	movwf	___fladd@b^0,c
  4118   001CBE  0E00               	movlw	0
  4119   001CC0  6E35               	movwf	(___fladd@b+1)^0,c
  4120   001CC2  0E00               	movlw	0
  4121   001CC4  6E36               	movwf	(___fladd@b+2)^0,c
  4122   001CC6  0E00               	movlw	0
  4123   001CC8  6E37               	movwf	(___fladd@b+3)^0,c
  4124   001CCA  5042               	movf	___fladd@bexp^0,w,c
  4125   001CCC  A4D8               	btfss	status,2,c
  4126   001CCE  EF6B  F00E         	goto	u2121
  4127   001CD2  EF6D  F00E         	goto	u2120
  4128   001CD6                     u2121:
  4129   001CD6  EF6F  F00E         	goto	l2042
  4130   001CDA                     u2120:
  4131   001CDA  0E00               	movlw	0
  4132   001CDC  6E40               	movwf	___fladd@signs^0,c
  4133   001CDE                     l2042:
  4134   001CDE  A042               	btfss	___fladd@bexp^0,0,c
  4135   001CE0  EF74  F00E         	goto	u2131
  4136   001CE4  EF76  F00E         	goto	u2130
  4137   001CE8                     u2131:
  4138   001CE8  EF79  F00E         	goto	l2046
  4139   001CEC                     u2130:
  4140   001CEC  8E36               	bsf	(___fladd@b+2)^0,7,c
  4141   001CEE  EF7A  F00E         	goto	l2048
  4142   001CF2                     l2046:
  4143   001CF2  9E36               	bcf	(___fladd@b+2)^0,7,c
  4144   001CF4                     l2048:
  4145   001CF4  90D8               	bcf	status,0,c
  4146   001CF6  3042               	rrcf	___fladd@bexp^0,w,c
  4147   001CF8  6E37               	movwf	(___fladd@b+3)^0,c
  4148   001CFA  AE40               	btfss	___fladd@signs^0,7,c
  4149   001CFC  EF82  F00E         	goto	u2141
  4150   001D00  EF84  F00E         	goto	u2140
  4151   001D04                     u2141:
  4152   001D04  EF85  F00E         	goto	l2054
  4153   001D08                     u2140:
  4154   001D08  8E37               	bsf	(___fladd@b+3)^0,7,c
  4155   001D0A                     l2054:
  4156   001D0A  C034  F034         	movff	___fladd@b,?___fladd
  4157   001D0E  C035  F035         	movff	___fladd@b+1,?___fladd+1
  4158   001D12  C036  F036         	movff	___fladd@b+2,?___fladd+2
  4159   001D16  C037  F037         	movff	___fladd@b+3,?___fladd+3
  4160   001D1A                     l733:
  4161   001D1A  0012               	return		;funcret
  4162   001D1C                     __end_of___fladd:
  4163                           	callstack 0
  4164                           
  4165 ;; *************** function ___flmul *****************
  4166 ;; Defined at:
  4167 ;;		line 8 in file "C:\Program Files\Microchip\xc8\v2.45\pic\sources\c99\common\sprcmul.c"
  4168 ;; Parameters:    Size  Location     Type
  4169 ;;  b               4    1[COMRAM] unsigned char 
  4170 ;;  a               4    5[COMRAM] unsigned char 
  4171 ;; Auto vars:     Size  Location     Type
  4172 ;;  prod            4   20[COMRAM] struct .
  4173 ;;  grs             4   14[COMRAM] unsigned long 
  4174 ;;  temp            2   24[COMRAM] struct .
  4175 ;;  bexp            1   19[COMRAM] unsigned char 
  4176 ;;  aexp            1   18[COMRAM] unsigned char 
  4177 ;;  sign            1   13[COMRAM] unsigned char 
  4178 ;; Return value:  Size  Location     Type
  4179 ;;                  4    1[COMRAM] unsigned char 
  4180 ;; Registers used:
  4181 ;;		wreg, status,2, status,0, prodl, prodh
  4182 ;; Tracked objects:
  4183 ;;		On entry : 0/0
  4184 ;;		On exit  : 0/0
  4185 ;;		Unchanged: 0/0
  4186 ;; Data sizes:     COMRAM   BANK0   BANK1   BANK2   BANK3   BANK4   BANK5   BANK6   BANK7
  4187 ;;      Params:         8       0       0       0       0       0       0       0       0
  4188 ;;      Locals:        13       0       0       0       0       0       0       0       0
  4189 ;;      Temps:          4       0       0       0       0       0       0       0       0
  4190 ;;      Totals:        25       0       0       0       0       0       0       0       0
  4191 ;;Total ram usage:       25 bytes
  4192 ;; Hardware stack levels used: 1
  4193 ;; Hardware stack levels required when called: 1
  4194 ;; This function calls:
  4195 ;;		Nothing
  4196 ;; This function is called by:
  4197 ;;		_uart_init
  4198 ;; This function uses a non-reentrant model
  4199 ;;
  4200                           
  4201                           	psect	text13
  4202   001D1C                     __ptext13:
  4203                           	callstack 0
  4204   001D1C                     ___flmul:
  4205                           	callstack 28
  4206   001D1C  5005               	movf	(___flmul@b+3)^0,w,c
  4207   001D1E  0B80               	andlw	128
  4208   001D20  6E0E               	movwf	___flmul@sign^0,c
  4209   001D22  5005               	movf	(___flmul@b+3)^0,w,c
  4210   001D24  2405               	addwf	(___flmul@b+3)^0,w,c
  4211   001D26  6E14               	movwf	___flmul@bexp^0,c
  4212   001D28  AE04               	btfss	(___flmul@b+2)^0,7,c
  4213   001D2A  EF99  F00E         	goto	u2581
  4214   001D2E  EF9B  F00E         	goto	u2580
  4215   001D32                     u2581:
  4216   001D32  EF9C  F00E         	goto	l2320
  4217   001D36                     u2580:
  4218   001D36  8014               	bsf	___flmul@bexp^0,0,c
  4219   001D38                     l2320:
  4220   001D38  5014               	movf	___flmul@bexp^0,w,c
  4221   001D3A  B4D8               	btfsc	status,2,c
  4222   001D3C  EFA2  F00E         	goto	u2591
  4223   001D40  EFA4  F00E         	goto	u2590
  4224   001D44                     u2591:
  4225   001D44  EFB7  F00E         	goto	l2328
  4226   001D48                     u2590:
  4227   001D48  2814               	incf	___flmul@bexp^0,w,c
  4228   001D4A  A4D8               	btfss	status,2,c
  4229   001D4C  EFAA  F00E         	goto	u2601
  4230   001D50  EFAC  F00E         	goto	u2600
  4231   001D54                     u2601:
  4232   001D54  EFB4  F00E         	goto	l2326
  4233   001D58                     u2600:
  4234   001D58  0E00               	movlw	0
  4235   001D5A  6E02               	movwf	___flmul@b^0,c
  4236   001D5C  0E00               	movlw	0
  4237   001D5E  6E03               	movwf	(___flmul@b+1)^0,c
  4238   001D60  0E00               	movlw	0
  4239   001D62  6E04               	movwf	(___flmul@b+2)^0,c
  4240   001D64  0E00               	movlw	0
  4241   001D66  6E05               	movwf	(___flmul@b+3)^0,c
  4242   001D68                     l2326:
  4243   001D68  8E04               	bsf	(___flmul@b+2)^0,7,c
  4244   001D6A  EFBF  F00E         	goto	l2330
  4245   001D6E                     l2328:
  4246   001D6E  0E00               	movlw	0
  4247   001D70  6E02               	movwf	___flmul@b^0,c
  4248   001D72  0E00               	movlw	0
  4249   001D74  6E03               	movwf	(___flmul@b+1)^0,c
  4250   001D76  0E00               	movlw	0
  4251   001D78  6E04               	movwf	(___flmul@b+2)^0,c
  4252   001D7A  0E00               	movlw	0
  4253   001D7C  6E05               	movwf	(___flmul@b+3)^0,c
  4254   001D7E                     l2330:
  4255   001D7E  5009               	movf	(___flmul@a+3)^0,w,c
  4256   001D80  0B80               	andlw	128
  4257   001D82  1A0E               	xorwf	___flmul@sign^0,f,c
  4258   001D84  5009               	movf	(___flmul@a+3)^0,w,c
  4259   001D86  2409               	addwf	(___flmul@a+3)^0,w,c
  4260   001D88  6E13               	movwf	___flmul@aexp^0,c
  4261   001D8A  AE08               	btfss	(___flmul@a+2)^0,7,c
  4262   001D8C  EFCA  F00E         	goto	u2611
  4263   001D90  EFCC  F00E         	goto	u2610
  4264   001D94                     u2611:
  4265   001D94  EFCD  F00E         	goto	l2338
  4266   001D98                     u2610:
  4267   001D98  8013               	bsf	___flmul@aexp^0,0,c
  4268   001D9A                     l2338:
  4269   001D9A  5013               	movf	___flmul@aexp^0,w,c
  4270   001D9C  B4D8               	btfsc	status,2,c
  4271   001D9E  EFD3  F00E         	goto	u2621
  4272   001DA2  EFD5  F00E         	goto	u2620
  4273   001DA6                     u2621:
  4274   001DA6  EFE8  F00E         	goto	l2346
  4275   001DAA                     u2620:
  4276   001DAA  2813               	incf	___flmul@aexp^0,w,c
  4277   001DAC  A4D8               	btfss	status,2,c
  4278   001DAE  EFDB  F00E         	goto	u2631
  4279   001DB2  EFDD  F00E         	goto	u2630
  4280   001DB6                     u2631:
  4281   001DB6  EFE5  F00E         	goto	l2344
  4282   001DBA                     u2630:
  4283   001DBA  0E00               	movlw	0
  4284   001DBC  6E06               	movwf	___flmul@a^0,c
  4285   001DBE  0E00               	movlw	0
  4286   001DC0  6E07               	movwf	(___flmul@a+1)^0,c
  4287   001DC2  0E00               	movlw	0
  4288   001DC4  6E08               	movwf	(___flmul@a+2)^0,c
  4289   001DC6  0E00               	movlw	0
  4290   001DC8  6E09               	movwf	(___flmul@a+3)^0,c
  4291   001DCA                     l2344:
  4292   001DCA  8E08               	bsf	(___flmul@a+2)^0,7,c
  4293   001DCC  EFF0  F00E         	goto	l810
  4294   001DD0                     l2346:
  4295   001DD0  0E00               	movlw	0
  4296   001DD2  6E06               	movwf	___flmul@a^0,c
  4297   001DD4  0E00               	movlw	0
  4298   001DD6  6E07               	movwf	(___flmul@a+1)^0,c
  4299   001DD8  0E00               	movlw	0
  4300   001DDA  6E08               	movwf	(___flmul@a+2)^0,c
  4301   001DDC  0E00               	movlw	0
  4302   001DDE  6E09               	movwf	(___flmul@a+3)^0,c
  4303   001DE0                     l810:
  4304   001DE0  5013               	movf	___flmul@aexp^0,w,c
  4305   001DE2  B4D8               	btfsc	status,2,c
  4306   001DE4  EFF6  F00E         	goto	u2641
  4307   001DE8  EFF8  F00E         	goto	u2640
  4308   001DEC                     u2641:
  4309   001DEC  EF00  F00F         	goto	l2350
  4310   001DF0                     u2640:
  4311   001DF0  5014               	movf	___flmul@bexp^0,w,c
  4312   001DF2  A4D8               	btfss	status,2,c
  4313   001DF4  EFFE  F00E         	goto	u2651
  4314   001DF8  EF00  F00F         	goto	u2650
  4315   001DFC                     u2651:
  4316   001DFC  EF0A  F00F         	goto	l2354
  4317   001E00                     u2650:
  4318   001E00                     l2350:
  4319   001E00  0E00               	movlw	0
  4320   001E02  6E02               	movwf	?___flmul^0,c
  4321   001E04  0E00               	movlw	0
  4322   001E06  6E03               	movwf	(?___flmul+1)^0,c
  4323   001E08  0E00               	movlw	0
  4324   001E0A  6E04               	movwf	(?___flmul+2)^0,c
  4325   001E0C  0E00               	movlw	0
  4326   001E0E  6E05               	movwf	(?___flmul+3)^0,c
  4327   001E10  EFA2  F010         	goto	l814
  4328   001E14                     l2354:
  4329   001E14  5008               	movf	(___flmul@a+2)^0,w,c
  4330   001E16  0202               	mulwf	___flmul@b^0,c
  4331   001E18  CFF3 F019          	movff	prodl,___flmul@temp
  4332   001E1C  CFF4 F01A          	movff	prodh,___flmul@temp+1
  4333   001E20  5019               	movf	___flmul@temp^0,w,c
  4334   001E22  6E0F               	movwf	___flmul@grs^0,c
  4335   001E24  6A10               	clrf	(___flmul@grs+1)^0,c
  4336   001E26  6A11               	clrf	(___flmul@grs+2)^0,c
  4337   001E28  6A12               	clrf	(___flmul@grs+3)^0,c
  4338   001E2A  501A               	movf	(___flmul@temp+1)^0,w,c
  4339   001E2C  6E15               	movwf	___flmul@prod^0,c
  4340   001E2E  6A16               	clrf	(___flmul@prod+1)^0,c
  4341   001E30  6A17               	clrf	(___flmul@prod+2)^0,c
  4342   001E32  6A18               	clrf	(___flmul@prod+3)^0,c
  4343   001E34  5007               	movf	(___flmul@a+1)^0,w,c
  4344   001E36  0203               	mulwf	(___flmul@b+1)^0,c
  4345   001E38  CFF3 F019          	movff	prodl,___flmul@temp
  4346   001E3C  CFF4 F01A          	movff	prodh,___flmul@temp+1
  4347   001E40  5019               	movf	___flmul@temp^0,w,c
  4348   001E42  260F               	addwf	___flmul@grs^0,f,c
  4349   001E44  0E00               	movlw	0
  4350   001E46  2210               	addwfc	(___flmul@grs+1)^0,f,c
  4351   001E48  2211               	addwfc	(___flmul@grs+2)^0,f,c
  4352   001E4A  2212               	addwfc	(___flmul@grs+3)^0,f,c
  4353   001E4C  501A               	movf	(___flmul@temp+1)^0,w,c
  4354   001E4E  2615               	addwf	___flmul@prod^0,f,c
  4355   001E50  0E00               	movlw	0
  4356   001E52  2216               	addwfc	(___flmul@prod+1)^0,f,c
  4357   001E54  2217               	addwfc	(___flmul@prod+2)^0,f,c
  4358   001E56  2218               	addwfc	(___flmul@prod+3)^0,f,c
  4359   001E58  5006               	movf	___flmul@a^0,w,c
  4360   001E5A  0204               	mulwf	(___flmul@b+2)^0,c
  4361   001E5C  CFF3 F019          	movff	prodl,___flmul@temp
  4362   001E60  CFF4 F01A          	movff	prodh,___flmul@temp+1
  4363   001E64  5019               	movf	___flmul@temp^0,w,c
  4364   001E66  260F               	addwf	___flmul@grs^0,f,c
  4365   001E68  0E00               	movlw	0
  4366   001E6A  2210               	addwfc	(___flmul@grs+1)^0,f,c
  4367   001E6C  2211               	addwfc	(___flmul@grs+2)^0,f,c
  4368   001E6E  2212               	addwfc	(___flmul@grs+3)^0,f,c
  4369   001E70  501A               	movf	(___flmul@temp+1)^0,w,c
  4370   001E72  2615               	addwf	___flmul@prod^0,f,c
  4371   001E74  0E00               	movlw	0
  4372   001E76  2216               	addwfc	(___flmul@prod+1)^0,f,c
  4373   001E78  2217               	addwfc	(___flmul@prod+2)^0,f,c
  4374   001E7A  2218               	addwfc	(___flmul@prod+3)^0,f,c
  4375   001E7C  C011  F012         	movff	___flmul@grs+2,___flmul@grs+3
  4376   001E80  C010  F011         	movff	___flmul@grs+1,___flmul@grs+2
  4377   001E84  C00F  F010         	movff	___flmul@grs,___flmul@grs+1
  4378   001E88  6A0F               	clrf	___flmul@grs^0,c
  4379   001E8A  5006               	movf	___flmul@a^0,w,c
  4380   001E8C  0203               	mulwf	(___flmul@b+1)^0,c
  4381   001E8E  CFF3 F019          	movff	prodl,___flmul@temp
  4382   001E92  CFF4 F01A          	movff	prodh,___flmul@temp+1
  4383   001E96  5019               	movf	___flmul@temp^0,w,c
  4384   001E98  260F               	addwf	___flmul@grs^0,f,c
  4385   001E9A  501A               	movf	(___flmul@temp+1)^0,w,c
  4386   001E9C  2210               	addwfc	(___flmul@grs+1)^0,f,c
  4387   001E9E  0E00               	movlw	0
  4388   001EA0  2211               	addwfc	(___flmul@grs+2)^0,f,c
  4389   001EA2  0E00               	movlw	0
  4390   001EA4  2212               	addwfc	(___flmul@grs+3)^0,f,c
  4391   001EA6  5007               	movf	(___flmul@a+1)^0,w,c
  4392   001EA8  0202               	mulwf	___flmul@b^0,c
  4393   001EAA  CFF3 F019          	movff	prodl,___flmul@temp
  4394   001EAE  CFF4 F01A          	movff	prodh,___flmul@temp+1
  4395   001EB2  5019               	movf	___flmul@temp^0,w,c
  4396   001EB4  260F               	addwf	___flmul@grs^0,f,c
  4397   001EB6  501A               	movf	(___flmul@temp+1)^0,w,c
  4398   001EB8  2210               	addwfc	(___flmul@grs+1)^0,f,c
  4399   001EBA  0E00               	movlw	0
  4400   001EBC  2211               	addwfc	(___flmul@grs+2)^0,f,c
  4401   001EBE  0E00               	movlw	0
  4402   001EC0  2212               	addwfc	(___flmul@grs+3)^0,f,c
  4403   001EC2  C011  F012         	movff	___flmul@grs+2,___flmul@grs+3
  4404   001EC6  C010  F011         	movff	___flmul@grs+1,___flmul@grs+2
  4405   001ECA  C00F  F010         	movff	___flmul@grs,___flmul@grs+1
  4406   001ECE  6A0F               	clrf	___flmul@grs^0,c
  4407   001ED0  5006               	movf	___flmul@a^0,w,c
  4408   001ED2  0202               	mulwf	___flmul@b^0,c
  4409   001ED4  CFF3 F019          	movff	prodl,___flmul@temp
  4410   001ED8  CFF4 F01A          	movff	prodh,___flmul@temp+1
  4411   001EDC  5019               	movf	___flmul@temp^0,w,c
  4412   001EDE  260F               	addwf	___flmul@grs^0,f,c
  4413   001EE0  501A               	movf	(___flmul@temp+1)^0,w,c
  4414   001EE2  2210               	addwfc	(___flmul@grs+1)^0,f,c
  4415   001EE4  0E00               	movlw	0
  4416   001EE6  2211               	addwfc	(___flmul@grs+2)^0,f,c
  4417   001EE8  0E00               	movlw	0
  4418   001EEA  2212               	addwfc	(___flmul@grs+3)^0,f,c
  4419   001EEC  5008               	movf	(___flmul@a+2)^0,w,c
  4420   001EEE  0203               	mulwf	(___flmul@b+1)^0,c
  4421   001EF0  CFF3 F019          	movff	prodl,___flmul@temp
  4422   001EF4  CFF4 F01A          	movff	prodh,___flmul@temp+1
  4423   001EF8  5019               	movf	___flmul@temp^0,w,c
  4424   001EFA  2615               	addwf	___flmul@prod^0,f,c
  4425   001EFC  501A               	movf	(___flmul@temp+1)^0,w,c
  4426   001EFE  2216               	addwfc	(___flmul@prod+1)^0,f,c
  4427   001F00  0E00               	movlw	0
  4428   001F02  2217               	addwfc	(___flmul@prod+2)^0,f,c
  4429   001F04  0E00               	movlw	0
  4430   001F06  2218               	addwfc	(___flmul@prod+3)^0,f,c
  4431   001F08  5007               	movf	(___flmul@a+1)^0,w,c
  4432   001F0A  0204               	mulwf	(___flmul@b+2)^0,c
  4433   001F0C  CFF3 F019          	movff	prodl,___flmul@temp
  4434   001F10  CFF4 F01A          	movff	prodh,___flmul@temp+1
  4435   001F14  5019               	movf	___flmul@temp^0,w,c
  4436   001F16  2615               	addwf	___flmul@prod^0,f,c
  4437   001F18  501A               	movf	(___flmul@temp+1)^0,w,c
  4438   001F1A  2216               	addwfc	(___flmul@prod+1)^0,f,c
  4439   001F1C  0E00               	movlw	0
  4440   001F1E  2217               	addwfc	(___flmul@prod+2)^0,f,c
  4441   001F20  0E00               	movlw	0
  4442   001F22  2218               	addwfc	(___flmul@prod+3)^0,f,c
  4443   001F24  5008               	movf	(___flmul@a+2)^0,w,c
  4444   001F26  0204               	mulwf	(___flmul@b+2)^0,c
  4445   001F28  CFF3 F019          	movff	prodl,___flmul@temp
  4446   001F2C  CFF4 F01A          	movff	prodh,___flmul@temp+1
  4447   001F30  5019               	movf	___flmul@temp^0,w,c
  4448   001F32  6E0A               	movwf	??___flmul^0,c
  4449   001F34  501A               	movf	(___flmul@temp+1)^0,w,c
  4450   001F36  6E0B               	movwf	(??___flmul+1)^0,c
  4451   001F38  6A0C               	clrf	(??___flmul+2)^0,c
  4452   001F3A  6A0D               	clrf	(??___flmul+3)^0,c
  4453   001F3C  C00C  F00D         	movff	??___flmul+2,??___flmul+3
  4454   001F40  C00B  F00C         	movff	??___flmul+1,??___flmul+2
  4455   001F44  C00A  F00B         	movff	??___flmul,??___flmul+1
  4456   001F48  6A0A               	clrf	??___flmul^0,c
  4457   001F4A  500A               	movf	??___flmul^0,w,c
  4458   001F4C  2615               	addwf	___flmul@prod^0,f,c
  4459   001F4E  500B               	movf	(??___flmul+1)^0,w,c
  4460   001F50  2216               	addwfc	(___flmul@prod+1)^0,f,c
  4461   001F52  500C               	movf	(??___flmul+2)^0,w,c
  4462   001F54  2217               	addwfc	(___flmul@prod+2)^0,f,c
  4463   001F56  500D               	movf	(??___flmul+3)^0,w,c
  4464   001F58  2218               	addwfc	(___flmul@prod+3)^0,f,c
  4465   001F5A  C00F  F00A         	movff	___flmul@grs,??___flmul
  4466   001F5E  C010  F00B         	movff	___flmul@grs+1,??___flmul+1
  4467   001F62  C011  F00C         	movff	___flmul@grs+2,??___flmul+2
  4468   001F66  C012  F00D         	movff	___flmul@grs+3,??___flmul+3
  4469   001F6A  0E19               	movlw	25
  4470   001F6C  EFBD  F00F         	goto	u2660
  4471   001F70                     u2665:
  4472   001F70  90D8               	bcf	status,0,c
  4473   001F72  320D               	rrcf	(??___flmul+3)^0,f,c
  4474   001F74  320C               	rrcf	(??___flmul+2)^0,f,c
  4475   001F76  320B               	rrcf	(??___flmul+1)^0,f,c
  4476   001F78  320A               	rrcf	??___flmul^0,f,c
  4477   001F7A                     u2660:
  4478   001F7A  2EE8               	decfsz	wreg,f,c
  4479   001F7C  EFB8  F00F         	goto	u2665
  4480   001F80  500A               	movf	??___flmul^0,w,c
  4481   001F82  2615               	addwf	___flmul@prod^0,f,c
  4482   001F84  500B               	movf	(??___flmul+1)^0,w,c
  4483   001F86  2216               	addwfc	(___flmul@prod+1)^0,f,c
  4484   001F88  500C               	movf	(??___flmul+2)^0,w,c
  4485   001F8A  2217               	addwfc	(___flmul@prod+2)^0,f,c
  4486   001F8C  500D               	movf	(??___flmul+3)^0,w,c
  4487   001F8E  2218               	addwfc	(___flmul@prod+3)^0,f,c
  4488   001F90  C011  F012         	movff	___flmul@grs+2,___flmul@grs+3
  4489   001F94  C010  F011         	movff	___flmul@grs+1,___flmul@grs+2
  4490   001F98  C00F  F010         	movff	___flmul@grs,___flmul@grs+1
  4491   001F9C  6A0F               	clrf	___flmul@grs^0,c
  4492   001F9E  5013               	movf	___flmul@aexp^0,w,c
  4493   001FA0  C014  F00A         	movff	___flmul@bexp,??___flmul
  4494   001FA4  6A0B               	clrf	(??___flmul+1)^0,c
  4495   001FA6  260A               	addwf	??___flmul^0,f,c
  4496   001FA8  0E00               	movlw	0
  4497   001FAA  220B               	addwfc	(??___flmul+1)^0,f,c
  4498   001FAC  0E82               	movlw	130
  4499   001FAE  240A               	addwf	??___flmul^0,w,c
  4500   001FB0  6E19               	movwf	___flmul@temp^0,c
  4501   001FB2  0EFF               	movlw	255
  4502   001FB4  200B               	addwfc	(??___flmul+1)^0,w,c
  4503   001FB6  6E1A               	movwf	(___flmul@temp+1)^0,c
  4504   001FB8  EFF3  F00F         	goto	l2402
  4505   001FBC                     l2396:
  4506   001FBC  90D8               	bcf	status,0,c
  4507   001FBE  3615               	rlcf	___flmul@prod^0,f,c
  4508   001FC0  3616               	rlcf	(___flmul@prod+1)^0,f,c
  4509   001FC2  3617               	rlcf	(___flmul@prod+2)^0,f,c
  4510   001FC4  3618               	rlcf	(___flmul@prod+3)^0,f,c
  4511   001FC6  AE12               	btfss	(___flmul@grs+3)^0,7,c
  4512   001FC8  EFE8  F00F         	goto	u2671
  4513   001FCC  EFEA  F00F         	goto	u2670
  4514   001FD0                     u2671:
  4515   001FD0  EFEB  F00F         	goto	l817
  4516   001FD4                     u2670:
  4517   001FD4  8015               	bsf	___flmul@prod^0,0,c
  4518   001FD6                     l817:
  4519   001FD6  90D8               	bcf	status,0,c
  4520   001FD8  360F               	rlcf	___flmul@grs^0,f,c
  4521   001FDA  3610               	rlcf	(___flmul@grs+1)^0,f,c
  4522   001FDC  3611               	rlcf	(___flmul@grs+2)^0,f,c
  4523   001FDE  3612               	rlcf	(___flmul@grs+3)^0,f,c
  4524   001FE0  0619               	decf	___flmul@temp^0,f,c
  4525   001FE2  A0D8               	btfss	status,0,c
  4526   001FE4  061A               	decf	(___flmul@temp+1)^0,f,c
  4527   001FE6                     l2402:
  4528   001FE6  AE17               	btfss	(___flmul@prod+2)^0,7,c
  4529   001FE8  EFF8  F00F         	goto	u2681
  4530   001FEC  EFFA  F00F         	goto	u2680
  4531   001FF0                     u2681:
  4532   001FF0  EFDE  F00F         	goto	l2396
  4533   001FF4                     u2680:
  4534   001FF4  0E00               	movlw	0
  4535   001FF6  6E13               	movwf	___flmul@aexp^0,c
  4536   001FF8  AE12               	btfss	(___flmul@grs+3)^0,7,c
  4537   001FFA  EF01  F010         	goto	u2691
  4538   001FFE  EF03  F010         	goto	u2690
  4539   002002                     u2691:
  4540   002002  EF27  F010         	goto	l819
  4541   002006                     u2690:
  4542   002006  0EFF               	movlw	255
  4543   002008  140F               	andwf	___flmul@grs^0,w,c
  4544   00200A  6E0A               	movwf	??___flmul^0,c
  4545   00200C  0EFF               	movlw	255
  4546   00200E  1410               	andwf	(___flmul@grs+1)^0,w,c
  4547   002010  6E0B               	movwf	(??___flmul+1)^0,c
  4548   002012  0EFF               	movlw	255
  4549   002014  1411               	andwf	(___flmul@grs+2)^0,w,c
  4550   002016  6E0C               	movwf	(??___flmul+2)^0,c
  4551   002018  0E7F               	movlw	127
  4552   00201A  1412               	andwf	(___flmul@grs+3)^0,w,c
  4553   00201C  6E0D               	movwf	(??___flmul+3)^0,c
  4554   00201E  500A               	movf	??___flmul^0,w,c
  4555   002020  100B               	iorwf	(??___flmul+1)^0,w,c
  4556   002022  100C               	iorwf	(??___flmul+2)^0,w,c
  4557   002024  100D               	iorwf	(??___flmul+3)^0,w,c
  4558   002026  B4D8               	btfsc	status,2,c
  4559   002028  EF18  F010         	goto	u2701
  4560   00202C  EF1A  F010         	goto	u2700
  4561   002030                     u2701:
  4562   002030  EF1E  F010         	goto	l820
  4563   002034                     u2700:
  4564   002034                     l2410:
  4565   002034  0E01               	movlw	1
  4566   002036  6E13               	movwf	___flmul@aexp^0,c
  4567   002038  EF27  F010         	goto	l819
  4568   00203C                     l820:
  4569   00203C  A015               	btfss	___flmul@prod^0,0,c
  4570   00203E  EF23  F010         	goto	u2711
  4571   002042  EF25  F010         	goto	u2710
  4572   002046                     u2711:
  4573   002046  EF27  F010         	goto	l819
  4574   00204A                     u2710:
  4575   00204A  EF1A  F010         	goto	l2410
  4576   00204E                     l819:
  4577   00204E  5013               	movf	___flmul@aexp^0,w,c
  4578   002050  B4D8               	btfsc	status,2,c
  4579   002052  EF2D  F010         	goto	u2721
  4580   002056  EF2F  F010         	goto	u2720
  4581   00205A                     u2721:
  4582   00205A  EF53  F010         	goto	l2422
  4583   00205E                     u2720:
  4584   00205E  0E01               	movlw	1
  4585   002060  2615               	addwf	___flmul@prod^0,f,c
  4586   002062  0E00               	movlw	0
  4587   002064  2216               	addwfc	(___flmul@prod+1)^0,f,c
  4588   002066  2217               	addwfc	(___flmul@prod+2)^0,f,c
  4589   002068  2218               	addwfc	(___flmul@prod+3)^0,f,c
  4590   00206A  A018               	btfss	(___flmul@prod+3)^0,0,c
  4591   00206C  EF3A  F010         	goto	u2731
  4592   002070  EF3C  F010         	goto	u2730
  4593   002074                     u2731:
  4594   002074  EF53  F010         	goto	l2422
  4595   002078                     u2730:
  4596   002078  C015  F00A         	movff	___flmul@prod,??___flmul
  4597   00207C  C016  F00B         	movff	___flmul@prod+1,??___flmul+1
  4598   002080  C017  F00C         	movff	___flmul@prod+2,??___flmul+2
  4599   002084  C018  F00D         	movff	___flmul@prod+3,??___flmul+3
  4600   002088  340D               	rlcf	(??___flmul+3)^0,w,c
  4601   00208A  320D               	rrcf	(??___flmul+3)^0,f,c
  4602   00208C  320C               	rrcf	(??___flmul+2)^0,f,c
  4603   00208E  320B               	rrcf	(??___flmul+1)^0,f,c
  4604   002090  320A               	rrcf	??___flmul^0,f,c
  4605   002092  C00A  F015         	movff	??___flmul,___flmul@prod
  4606   002096  C00B  F016         	movff	??___flmul+1,___flmul@prod+1
  4607   00209A  C00C  F017         	movff	??___flmul+2,___flmul@prod+2
  4608   00209E  C00D  F018         	movff	??___flmul+3,___flmul@prod+3
  4609   0020A2  4A19               	infsnz	___flmul@temp^0,f,c
  4610   0020A4  2A1A               	incf	(___flmul@temp+1)^0,f,c
  4611   0020A6                     l2422:
  4612   0020A6  BE1A               	btfsc	(___flmul@temp+1)^0,7,c
  4613   0020A8  EF5E  F010         	goto	u2741
  4614   0020AC  501A               	movf	(___flmul@temp+1)^0,w,c
  4615   0020AE  E108               	bnz	u2740
  4616   0020B0  2819               	incf	___flmul@temp^0,w,c
  4617   0020B2  A0D8               	btfss	status,0,c
  4618   0020B4  EF5E  F010         	goto	u2741
  4619   0020B8  EF60  F010         	goto	u2740
  4620   0020BC                     u2741:
  4621   0020BC  EF6A  F010         	goto	l2426
  4622   0020C0                     u2740:
  4623   0020C0  0E00               	movlw	0
  4624   0020C2  6E15               	movwf	___flmul@prod^0,c
  4625   0020C4  0E00               	movlw	0
  4626   0020C6  6E16               	movwf	(___flmul@prod+1)^0,c
  4627   0020C8  0E80               	movlw	128
  4628   0020CA  6E17               	movwf	(___flmul@prod+2)^0,c
  4629   0020CC  0E7F               	movlw	127
  4630   0020CE  6E18               	movwf	(___flmul@prod+3)^0,c
  4631   0020D0  EF98  F010         	goto	l2438
  4632   0020D4                     l2426:
  4633   0020D4  BE1A               	btfsc	(___flmul@temp+1)^0,7,c
  4634   0020D6  EF77  F010         	goto	u2750
  4635   0020DA  501A               	movf	(___flmul@temp+1)^0,w,c
  4636   0020DC  E106               	bnz	u2751
  4637   0020DE  0419               	decf	___flmul@temp^0,w,c
  4638   0020E0  B0D8               	btfsc	status,0,c
  4639   0020E2  EF75  F010         	goto	u2751
  4640   0020E6  EF77  F010         	goto	u2750
  4641   0020EA                     u2751:
  4642   0020EA  EF83  F010         	goto	l827
  4643   0020EE                     u2750:
  4644   0020EE  0E00               	movlw	0
  4645   0020F0  6E15               	movwf	___flmul@prod^0,c
  4646   0020F2  0E00               	movlw	0
  4647   0020F4  6E16               	movwf	(___flmul@prod+1)^0,c
  4648   0020F6  0E00               	movlw	0
  4649   0020F8  6E17               	movwf	(___flmul@prod+2)^0,c
  4650   0020FA  0E00               	movlw	0
  4651   0020FC  6E18               	movwf	(___flmul@prod+3)^0,c
  4652   0020FE  0E00               	movlw	0
  4653   002100  6E0E               	movwf	___flmul@sign^0,c
  4654   002102  EF98  F010         	goto	l2438
  4655   002106                     l827:
  4656   002106  C019  F014         	movff	___flmul@temp,___flmul@bexp
  4657   00210A  0EFF               	movlw	255
  4658   00210C  1615               	andwf	___flmul@prod^0,f,c
  4659   00210E  0EFF               	movlw	255
  4660   002110  1616               	andwf	(___flmul@prod+1)^0,f,c
  4661   002112  0E7F               	movlw	127
  4662   002114  1617               	andwf	(___flmul@prod+2)^0,f,c
  4663   002116  0E00               	movlw	0
  4664   002118  1618               	andwf	(___flmul@prod+3)^0,f,c
  4665   00211A  A014               	btfss	___flmul@bexp^0,0,c
  4666   00211C  EF92  F010         	goto	u2761
  4667   002120  EF94  F010         	goto	u2760
  4668   002124                     u2761:
  4669   002124  EF95  F010         	goto	l2436
  4670   002128                     u2760:
  4671   002128  8E17               	bsf	(___flmul@prod+2)^0,7,c
  4672   00212A                     l2436:
  4673   00212A  90D8               	bcf	status,0,c
  4674   00212C  3014               	rrcf	___flmul@bexp^0,w,c
  4675   00212E  6E18               	movwf	(___flmul@prod+3)^0,c
  4676   002130                     l2438:
  4677   002130  500E               	movf	___flmul@sign^0,w,c
  4678   002132  1218               	iorwf	(___flmul@prod+3)^0,f,c
  4679   002134  C015  F002         	movff	___flmul@prod,?___flmul
  4680   002138  C016  F003         	movff	___flmul@prod+1,?___flmul+1
  4681   00213C  C017  F004         	movff	___flmul@prod+2,?___flmul+2
  4682   002140  C018  F005         	movff	___flmul@prod+3,?___flmul+3
  4683   002144                     l814:
  4684   002144  0012               	return		;funcret
  4685   002146                     __end_of___flmul:
  4686                           	callstack 0
  4687                           
  4688 ;; *************** function ___fleq *****************
  4689 ;; Defined at:
  4690 ;;		line 4 in file "C:\Program Files\Microchip\xc8\v2.45\pic\sources\c99\common\fleq.c"
  4691 ;; Parameters:    Size  Location     Type
  4692 ;;  ff1             4    1[COMRAM] unsigned char 
  4693 ;;  ff2             4    5[COMRAM] unsigned char 
  4694 ;; Auto vars:     Size  Location     Type
  4695 ;;		None
  4696 ;; Return value:  Size  Location     Type
  4697 ;;		None               void
  4698 ;; Registers used:
  4699 ;;		wreg, status,2, status,0
  4700 ;; Tracked objects:
  4701 ;;		On entry : 0/0
  4702 ;;		On exit  : 0/0
  4703 ;;		Unchanged: 0/0
  4704 ;; Data sizes:     COMRAM   BANK0   BANK1   BANK2   BANK3   BANK4   BANK5   BANK6   BANK7
  4705 ;;      Params:         8       0       0       0       0       0       0       0       0
  4706 ;;      Locals:         0       0       0       0       0       0       0       0       0
  4707 ;;      Temps:          4       0       0       0       0       0       0       0       0
  4708 ;;      Totals:        12       0       0       0       0       0       0       0       0
  4709 ;;Total ram usage:       12 bytes
  4710 ;; Hardware stack levels used: 1
  4711 ;; Hardware stack levels required when called: 1
  4712 ;; This function calls:
  4713 ;;		Nothing
  4714 ;; This function is called by:
  4715 ;;		_uart_init
  4716 ;; This function uses a non-reentrant model
  4717 ;;
  4718                           
  4719                           	psect	text14
  4720   002ABA                     __ptext14:
  4721                           	callstack 0
  4722   002ABA                     ___fleq:
  4723                           	callstack 28
  4724   002ABA  0E00               	movlw	0
  4725   002ABC  1402               	andwf	___fleq@ff1^0,w,c
  4726   002ABE  6E0A               	movwf	??___fleq^0,c
  4727   002AC0  0E00               	movlw	0
  4728   002AC2  1403               	andwf	(___fleq@ff1+1)^0,w,c
  4729   002AC4  6E0B               	movwf	(??___fleq+1)^0,c
  4730   002AC6  0E80               	movlw	128
  4731   002AC8  1404               	andwf	(___fleq@ff1+2)^0,w,c
  4732   002ACA  6E0C               	movwf	(??___fleq+2)^0,c
  4733   002ACC  0E7F               	movlw	127
  4734   002ACE  1405               	andwf	(___fleq@ff1+3)^0,w,c
  4735   002AD0  6E0D               	movwf	(??___fleq+3)^0,c
  4736   002AD2  500A               	movf	??___fleq^0,w,c
  4737   002AD4  100B               	iorwf	(??___fleq+1)^0,w,c
  4738   002AD6  100C               	iorwf	(??___fleq+2)^0,w,c
  4739   002AD8  100D               	iorwf	(??___fleq+3)^0,w,c
  4740   002ADA  A4D8               	btfss	status,2,c
  4741   002ADC  EF72  F015         	goto	u2771
  4742   002AE0  EF74  F015         	goto	u2770
  4743   002AE4                     u2771:
  4744   002AE4  EF7C  F015         	goto	l2454
  4745   002AE8                     u2770:
  4746   002AE8  0E00               	movlw	0
  4747   002AEA  6E02               	movwf	___fleq@ff1^0,c
  4748   002AEC  0E00               	movlw	0
  4749   002AEE  6E03               	movwf	(___fleq@ff1+1)^0,c
  4750   002AF0  0E00               	movlw	0
  4751   002AF2  6E04               	movwf	(___fleq@ff1+2)^0,c
  4752   002AF4  0E00               	movlw	0
  4753   002AF6  6E05               	movwf	(___fleq@ff1+3)^0,c
  4754   002AF8                     l2454:
  4755   002AF8  0E00               	movlw	0
  4756   002AFA  1406               	andwf	___fleq@ff2^0,w,c
  4757   002AFC  6E0A               	movwf	??___fleq^0,c
  4758   002AFE  0E00               	movlw	0
  4759   002B00  1407               	andwf	(___fleq@ff2+1)^0,w,c
  4760   002B02  6E0B               	movwf	(??___fleq+1)^0,c
  4761   002B04  0E80               	movlw	128
  4762   002B06  1408               	andwf	(___fleq@ff2+2)^0,w,c
  4763   002B08  6E0C               	movwf	(??___fleq+2)^0,c
  4764   002B0A  0E7F               	movlw	127
  4765   002B0C  1409               	andwf	(___fleq@ff2+3)^0,w,c
  4766   002B0E  6E0D               	movwf	(??___fleq+3)^0,c
  4767   002B10  500A               	movf	??___fleq^0,w,c
  4768   002B12  100B               	iorwf	(??___fleq+1)^0,w,c
  4769   002B14  100C               	iorwf	(??___fleq+2)^0,w,c
  4770   002B16  100D               	iorwf	(??___fleq+3)^0,w,c
  4771   002B18  A4D8               	btfss	status,2,c
  4772   002B1A  EF91  F015         	goto	u2781
  4773   002B1E  EF93  F015         	goto	u2780
  4774   002B22                     u2781:
  4775   002B22  EF9B  F015         	goto	l2458
  4776   002B26                     u2780:
  4777   002B26  0E00               	movlw	0
  4778   002B28  6E06               	movwf	___fleq@ff2^0,c
  4779   002B2A  0E00               	movlw	0
  4780   002B2C  6E07               	movwf	(___fleq@ff2+1)^0,c
  4781   002B2E  0E00               	movlw	0
  4782   002B30  6E08               	movwf	(___fleq@ff2+2)^0,c
  4783   002B32  0E00               	movlw	0
  4784   002B34  6E09               	movwf	(___fleq@ff2+3)^0,c
  4785   002B36                     l2458:
  4786   002B36  5006               	movf	___fleq@ff2^0,w,c
  4787   002B38  1802               	xorwf	___fleq@ff1^0,w,c
  4788   002B3A  E10F               	bnz	u2790
  4789   002B3C  5007               	movf	(___fleq@ff2+1)^0,w,c
  4790   002B3E  1803               	xorwf	(___fleq@ff1+1)^0,w,c
  4791   002B40  E10C               	bnz	u2790
  4792   002B42  5008               	movf	(___fleq@ff2+2)^0,w,c
  4793   002B44  1804               	xorwf	(___fleq@ff1+2)^0,w,c
  4794   002B46  E109               	bnz	u2790
  4795   002B48  5009               	movf	(___fleq@ff2+3)^0,w,c
  4796   002B4A  1805               	xorwf	(___fleq@ff1+3)^0,w,c
  4797   002B4C  B4D8               	btfsc	status,2,c
  4798   002B4E  EFAB  F015         	goto	u2791
  4799   002B52  EFAD  F015         	goto	u2790
  4800   002B56                     u2791:
  4801   002B56  EFB0  F015         	goto	l2462
  4802   002B5A                     u2790:
  4803   002B5A  90D8               	bcf	status,0,c
  4804   002B5C  EFB1  F015         	goto	l455
  4805   002B60                     l2462:
  4806   002B60  80D8               	bsf	status,0,c
  4807   002B62                     l455:
  4808   002B62  0012               	return		;funcret
  4809   002B64                     __end_of___fleq:
  4810                           	callstack 0
  4811                           
  4812 ;; *************** function ___fldiv *****************
  4813 ;; Defined at:
  4814 ;;		line 11 in file "C:\Program Files\Microchip\xc8\v2.45\pic\sources\c99\common\sprcdiv.c"
  4815 ;; Parameters:    Size  Location     Type
  4816 ;;  b               4   26[COMRAM] unsigned char 
  4817 ;;  a               4   30[COMRAM] unsigned char 
  4818 ;; Auto vars:     Size  Location     Type
  4819 ;;  grs             4   45[COMRAM] unsigned long 
  4820 ;;  rem             4   38[COMRAM] unsigned long 
  4821 ;;  new_exp         2   43[COMRAM] short 
  4822 ;;  aexp            1   50[COMRAM] unsigned char 
  4823 ;;  bexp            1   49[COMRAM] unsigned char 
  4824 ;;  sign            1   42[COMRAM] unsigned char 
  4825 ;; Return value:  Size  Location     Type
  4826 ;;                  4   26[COMRAM] unsigned char 
  4827 ;; Registers used:
  4828 ;;		wreg, status,2, status,0
  4829 ;; Tracked objects:
  4830 ;;		On entry : 0/0
  4831 ;;		On exit  : 0/0
  4832 ;;		Unchanged: 0/0
  4833 ;; Data sizes:     COMRAM   BANK0   BANK1   BANK2   BANK3   BANK4   BANK5   BANK6   BANK7
  4834 ;;      Params:         8       0       0       0       0       0       0       0       0
  4835 ;;      Locals:        13       0       0       0       0       0       0       0       0
  4836 ;;      Temps:          4       0       0       0       0       0       0       0       0
  4837 ;;      Totals:        25       0       0       0       0       0       0       0       0
  4838 ;;Total ram usage:       25 bytes
  4839 ;; Hardware stack levels used: 1
  4840 ;; Hardware stack levels required when called: 1
  4841 ;; This function calls:
  4842 ;;		Nothing
  4843 ;; This function is called by:
  4844 ;;		_uart_init
  4845 ;; This function uses a non-reentrant model
  4846 ;;
  4847                           
  4848                           	psect	text15
  4849   002146                     __ptext15:
  4850                           	callstack 0
  4851   002146                     ___fldiv:
  4852                           	callstack 28
  4853   002146  501E               	movf	(___fldiv@b+3)^0,w,c
  4854   002148  0B80               	andlw	128
  4855   00214A  6E2B               	movwf	___fldiv@sign^0,c
  4856   00214C  501E               	movf	(___fldiv@b+3)^0,w,c
  4857   00214E  241E               	addwf	(___fldiv@b+3)^0,w,c
  4858   002150  6E32               	movwf	___fldiv@bexp^0,c
  4859   002152  AE1D               	btfss	(___fldiv@b+2)^0,7,c
  4860   002154  EFAE  F010         	goto	u2351
  4861   002158  EFB0  F010         	goto	u2350
  4862   00215C                     u2351:
  4863   00215C  EFB1  F010         	goto	l2182
  4864   002160                     u2350:
  4865   002160  8032               	bsf	___fldiv@bexp^0,0,c
  4866   002162                     l2182:
  4867   002162  5032               	movf	___fldiv@bexp^0,w,c
  4868   002164  B4D8               	btfsc	status,2,c
  4869   002166  EFB7  F010         	goto	u2361
  4870   00216A  EFB9  F010         	goto	u2360
  4871   00216E                     u2361:
  4872   00216E  EFCE  F010         	goto	l2192
  4873   002172                     u2360:
  4874   002172  2832               	incf	___fldiv@bexp^0,w,c
  4875   002174  A4D8               	btfss	status,2,c
  4876   002176  EFBF  F010         	goto	u2371
  4877   00217A  EFC1  F010         	goto	u2370
  4878   00217E                     u2371:
  4879   00217E  EFC9  F010         	goto	l2188
  4880   002182                     u2370:
  4881   002182  0E00               	movlw	0
  4882   002184  6E1B               	movwf	___fldiv@b^0,c
  4883   002186  0E00               	movlw	0
  4884   002188  6E1C               	movwf	(___fldiv@b+1)^0,c
  4885   00218A  0E00               	movlw	0
  4886   00218C  6E1D               	movwf	(___fldiv@b+2)^0,c
  4887   00218E  0E00               	movlw	0
  4888   002190  6E1E               	movwf	(___fldiv@b+3)^0,c
  4889   002192                     l2188:
  4890   002192  8E1D               	bsf	(___fldiv@b+2)^0,7,c
  4891   002194  0E00               	movlw	0
  4892   002196  6E1E               	movwf	(___fldiv@b+3)^0,c
  4893   002198  EFD6  F010         	goto	l2194
  4894   00219C                     l2192:
  4895   00219C  0E00               	movlw	0
  4896   00219E  6E1B               	movwf	___fldiv@b^0,c
  4897   0021A0  0E00               	movlw	0
  4898   0021A2  6E1C               	movwf	(___fldiv@b+1)^0,c
  4899   0021A4  0E00               	movlw	0
  4900   0021A6  6E1D               	movwf	(___fldiv@b+2)^0,c
  4901   0021A8  0E00               	movlw	0
  4902   0021AA  6E1E               	movwf	(___fldiv@b+3)^0,c
  4903   0021AC                     l2194:
  4904   0021AC  5022               	movf	(___fldiv@a+3)^0,w,c
  4905   0021AE  0B80               	andlw	128
  4906   0021B0  1A2B               	xorwf	___fldiv@sign^0,f,c
  4907   0021B2  5022               	movf	(___fldiv@a+3)^0,w,c
  4908   0021B4  2422               	addwf	(___fldiv@a+3)^0,w,c
  4909   0021B6  6E33               	movwf	___fldiv@aexp^0,c
  4910   0021B8  AE21               	btfss	(___fldiv@a+2)^0,7,c
  4911   0021BA  EFE1  F010         	goto	u2381
  4912   0021BE  EFE3  F010         	goto	u2380
  4913   0021C2                     u2381:
  4914   0021C2  EFE4  F010         	goto	l2202
  4915   0021C6                     u2380:
  4916   0021C6  8033               	bsf	___fldiv@aexp^0,0,c
  4917   0021C8                     l2202:
  4918   0021C8  5033               	movf	___fldiv@aexp^0,w,c
  4919   0021CA  B4D8               	btfsc	status,2,c
  4920   0021CC  EFEA  F010         	goto	u2391
  4921   0021D0  EFEC  F010         	goto	u2390
  4922   0021D4                     u2391:
  4923   0021D4  EF01  F011         	goto	l2212
  4924   0021D8                     u2390:
  4925   0021D8  2833               	incf	___fldiv@aexp^0,w,c
  4926   0021DA  A4D8               	btfss	status,2,c
  4927   0021DC  EFF2  F010         	goto	u2401
  4928   0021E0  EFF4  F010         	goto	u2400
  4929   0021E4                     u2401:
  4930   0021E4  EFFC  F010         	goto	l2208
  4931   0021E8                     u2400:
  4932   0021E8  0E00               	movlw	0
  4933   0021EA  6E1F               	movwf	___fldiv@a^0,c
  4934   0021EC  0E00               	movlw	0
  4935   0021EE  6E20               	movwf	(___fldiv@a+1)^0,c
  4936   0021F0  0E00               	movlw	0
  4937   0021F2  6E21               	movwf	(___fldiv@a+2)^0,c
  4938   0021F4  0E00               	movlw	0
  4939   0021F6  6E22               	movwf	(___fldiv@a+3)^0,c
  4940   0021F8                     l2208:
  4941   0021F8  8E21               	bsf	(___fldiv@a+2)^0,7,c
  4942   0021FA  0E00               	movlw	0
  4943   0021FC  6E22               	movwf	(___fldiv@a+3)^0,c
  4944   0021FE  EF09  F011         	goto	l2214
  4945   002202                     l2212:
  4946   002202  0E00               	movlw	0
  4947   002204  6E1F               	movwf	___fldiv@a^0,c
  4948   002206  0E00               	movlw	0
  4949   002208  6E20               	movwf	(___fldiv@a+1)^0,c
  4950   00220A  0E00               	movlw	0
  4951   00220C  6E21               	movwf	(___fldiv@a+2)^0,c
  4952   00220E  0E00               	movlw	0
  4953   002210  6E22               	movwf	(___fldiv@a+3)^0,c
  4954   002212                     l2214:
  4955   002212  501F               	movf	___fldiv@a^0,w,c
  4956   002214  1020               	iorwf	(___fldiv@a+1)^0,w,c
  4957   002216  1021               	iorwf	(___fldiv@a+2)^0,w,c
  4958   002218  1022               	iorwf	(___fldiv@a+3)^0,w,c
  4959   00221A  A4D8               	btfss	status,2,c
  4960   00221C  EF12  F011         	goto	u2411
  4961   002220  EF14  F011         	goto	u2410
  4962   002224                     u2411:
  4963   002224  EF2C  F011         	goto	l2226
  4964   002228                     u2410:
  4965   002228  0E00               	movlw	0
  4966   00222A  6E1B               	movwf	___fldiv@b^0,c
  4967   00222C  0E00               	movlw	0
  4968   00222E  6E1C               	movwf	(___fldiv@b+1)^0,c
  4969   002230  0E00               	movlw	0
  4970   002232  6E1D               	movwf	(___fldiv@b+2)^0,c
  4971   002234  0E00               	movlw	0
  4972   002236  6E1E               	movwf	(___fldiv@b+3)^0,c
  4973   002238  0E80               	movlw	128
  4974   00223A  121D               	iorwf	(___fldiv@b+2)^0,f,c
  4975   00223C  0E7F               	movlw	127
  4976   00223E  121E               	iorwf	(___fldiv@b+3)^0,f,c
  4977   002240                     l2220:
  4978   002240  502B               	movf	___fldiv@sign^0,w,c
  4979   002242  121E               	iorwf	(___fldiv@b+3)^0,f,c
  4980   002244  C01B  F01B         	movff	___fldiv@b,?___fldiv
  4981   002248  C01C  F01C         	movff	___fldiv@b+1,?___fldiv+1
  4982   00224C  C01D  F01D         	movff	___fldiv@b+2,?___fldiv+2
  4983   002250  C01E  F01E         	movff	___fldiv@b+3,?___fldiv+3
  4984   002254  EF6F  F012         	goto	l778
  4985   002258                     l2226:
  4986   002258  5032               	movf	___fldiv@bexp^0,w,c
  4987   00225A  A4D8               	btfss	status,2,c
  4988   00225C  EF32  F011         	goto	u2421
  4989   002260  EF34  F011         	goto	u2420
  4990   002264                     u2421:
  4991   002264  EF3E  F011         	goto	l2234
  4992   002268                     u2420:
  4993   002268  0E00               	movlw	0
  4994   00226A  6E1B               	movwf	?___fldiv^0,c
  4995   00226C  0E00               	movlw	0
  4996   00226E  6E1C               	movwf	(?___fldiv+1)^0,c
  4997   002270  0E00               	movlw	0
  4998   002272  6E1D               	movwf	(?___fldiv+2)^0,c
  4999   002274  0E00               	movlw	0
  5000   002276  6E1E               	movwf	(?___fldiv+3)^0,c
  5001   002278  EF6F  F012         	goto	l778
  5002   00227C                     l2234:
  5003   00227C  5033               	movf	___fldiv@aexp^0,w,c
  5004   00227E  C032  F023         	movff	___fldiv@bexp,??___fldiv
  5005   002282  6A24               	clrf	(??___fldiv+1)^0,c
  5006   002284  5E23               	subwf	??___fldiv^0,f,c
  5007   002286  0E00               	movlw	0
  5008   002288  5A24               	subwfb	(??___fldiv+1)^0,f,c
  5009   00228A  0E7F               	movlw	127
  5010   00228C  2423               	addwf	??___fldiv^0,w,c
  5011   00228E  6E2C               	movwf	___fldiv@new_exp^0,c
  5012   002290  0E00               	movlw	0
  5013   002292  2024               	addwfc	(??___fldiv+1)^0,w,c
  5014   002294  6E2D               	movwf	(___fldiv@new_exp+1)^0,c
  5015   002296  C01B  F027         	movff	___fldiv@b,___fldiv@rem
  5016   00229A  C01C  F028         	movff	___fldiv@b+1,___fldiv@rem+1
  5017   00229E  C01D  F029         	movff	___fldiv@b+2,___fldiv@rem+2
  5018   0022A2  C01E  F02A         	movff	___fldiv@b+3,___fldiv@rem+3
  5019   0022A6  0E00               	movlw	0
  5020   0022A8  6E1B               	movwf	___fldiv@b^0,c
  5021   0022AA  0E00               	movlw	0
  5022   0022AC  6E1C               	movwf	(___fldiv@b+1)^0,c
  5023   0022AE  0E00               	movlw	0
  5024   0022B0  6E1D               	movwf	(___fldiv@b+2)^0,c
  5025   0022B2  0E00               	movlw	0
  5026   0022B4  6E1E               	movwf	(___fldiv@b+3)^0,c
  5027   0022B6  0E00               	movlw	0
  5028   0022B8  6E2E               	movwf	___fldiv@grs^0,c
  5029   0022BA  0E00               	movlw	0
  5030   0022BC  6E2F               	movwf	(___fldiv@grs+1)^0,c
  5031   0022BE  0E00               	movlw	0
  5032   0022C0  6E30               	movwf	(___fldiv@grs+2)^0,c
  5033   0022C2  0E00               	movlw	0
  5034   0022C4  6E31               	movwf	(___fldiv@grs+3)^0,c
  5035   0022C6  0E00               	movlw	0
  5036   0022C8  6E33               	movwf	___fldiv@aexp^0,c
  5037   0022CA  EF9F  F011         	goto	l780
  5038   0022CE                     l2244:
  5039   0022CE  5033               	movf	___fldiv@aexp^0,w,c
  5040   0022D0  B4D8               	btfsc	status,2,c
  5041   0022D2  EF6D  F011         	goto	u2431
  5042   0022D6  EF6F  F011         	goto	u2430
  5043   0022DA                     u2431:
  5044   0022DA  EF86  F011         	goto	l2252
  5045   0022DE                     u2430:
  5046   0022DE  90D8               	bcf	status,0,c
  5047   0022E0  3627               	rlcf	___fldiv@rem^0,f,c
  5048   0022E2  3628               	rlcf	(___fldiv@rem+1)^0,f,c
  5049   0022E4  3629               	rlcf	(___fldiv@rem+2)^0,f,c
  5050   0022E6  362A               	rlcf	(___fldiv@rem+3)^0,f,c
  5051   0022E8  90D8               	bcf	status,0,c
  5052   0022EA  361B               	rlcf	___fldiv@b^0,f,c
  5053   0022EC  361C               	rlcf	(___fldiv@b+1)^0,f,c
  5054   0022EE  361D               	rlcf	(___fldiv@b+2)^0,f,c
  5055   0022F0  361E               	rlcf	(___fldiv@b+3)^0,f,c
  5056   0022F2  AE31               	btfss	(___fldiv@grs+3)^0,7,c
  5057   0022F4  EF7E  F011         	goto	u2441
  5058   0022F8  EF80  F011         	goto	u2440
  5059   0022FC                     u2441:
  5060   0022FC  EF81  F011         	goto	l783
  5061   002300                     u2440:
  5062   002300  801B               	bsf	___fldiv@b^0,0,c
  5063   002302                     l783:
  5064   002302  90D8               	bcf	status,0,c
  5065   002304  362E               	rlcf	___fldiv@grs^0,f,c
  5066   002306  362F               	rlcf	(___fldiv@grs+1)^0,f,c
  5067   002308  3630               	rlcf	(___fldiv@grs+2)^0,f,c
  5068   00230A  3631               	rlcf	(___fldiv@grs+3)^0,f,c
  5069   00230C                     l2252:
  5070   00230C  501F               	movf	___fldiv@a^0,w,c
  5071   00230E  5C27               	subwf	___fldiv@rem^0,w,c
  5072   002310  5020               	movf	(___fldiv@a+1)^0,w,c
  5073   002312  5828               	subwfb	(___fldiv@rem+1)^0,w,c
  5074   002314  5021               	movf	(___fldiv@a+2)^0,w,c
  5075   002316  5829               	subwfb	(___fldiv@rem+2)^0,w,c
  5076   002318  5022               	movf	(___fldiv@a+3)^0,w,c
  5077   00231A  582A               	subwfb	(___fldiv@rem+3)^0,w,c
  5078   00231C  A0D8               	btfss	status,0,c
  5079   00231E  EF93  F011         	goto	u2451
  5080   002322  EF95  F011         	goto	u2450
  5081   002326                     u2451:
  5082   002326  EF9E  F011         	goto	l2258
  5083   00232A                     u2450:
  5084   00232A  8C31               	bsf	(___fldiv@grs+3)^0,6,c
  5085   00232C  501F               	movf	___fldiv@a^0,w,c
  5086   00232E  5E27               	subwf	___fldiv@rem^0,f,c
  5087   002330  5020               	movf	(___fldiv@a+1)^0,w,c
  5088   002332  5A28               	subwfb	(___fldiv@rem+1)^0,f,c
  5089   002334  5021               	movf	(___fldiv@a+2)^0,w,c
  5090   002336  5A29               	subwfb	(___fldiv@rem+2)^0,f,c
  5091   002338  5022               	movf	(___fldiv@a+3)^0,w,c
  5092   00233A  5A2A               	subwfb	(___fldiv@rem+3)^0,f,c
  5093   00233C                     l2258:
  5094   00233C  2A33               	incf	___fldiv@aexp^0,f,c
  5095   00233E                     l780:
  5096   00233E  0E19               	movlw	25
  5097   002340  6433               	cpfsgt	___fldiv@aexp^0,c
  5098   002342  EFA5  F011         	goto	u2461
  5099   002346  EFA7  F011         	goto	u2460
  5100   00234A                     u2461:
  5101   00234A  EF67  F011         	goto	l2244
  5102   00234E                     u2460:
  5103   00234E  5027               	movf	___fldiv@rem^0,w,c
  5104   002350  1028               	iorwf	(___fldiv@rem+1)^0,w,c
  5105   002352  1029               	iorwf	(___fldiv@rem+2)^0,w,c
  5106   002354  102A               	iorwf	(___fldiv@rem+3)^0,w,c
  5107   002356  B4D8               	btfsc	status,2,c
  5108   002358  EFB0  F011         	goto	u2471
  5109   00235C  EFB2  F011         	goto	u2470
  5110   002360                     u2471:
  5111   002360  EFCA  F011         	goto	l2270
  5112   002364                     u2470:
  5113   002364  802E               	bsf	___fldiv@grs^0,0,c
  5114   002366  EFCA  F011         	goto	l2270
  5115   00236A                     l2264:
  5116   00236A  90D8               	bcf	status,0,c
  5117   00236C  361B               	rlcf	___fldiv@b^0,f,c
  5118   00236E  361C               	rlcf	(___fldiv@b+1)^0,f,c
  5119   002370  361D               	rlcf	(___fldiv@b+2)^0,f,c
  5120   002372  361E               	rlcf	(___fldiv@b+3)^0,f,c
  5121   002374  AE31               	btfss	(___fldiv@grs+3)^0,7,c
  5122   002376  EFBF  F011         	goto	u2481
  5123   00237A  EFC1  F011         	goto	u2480
  5124   00237E                     u2481:
  5125   00237E  EFC2  F011         	goto	l789
  5126   002382                     u2480:
  5127   002382  801B               	bsf	___fldiv@b^0,0,c
  5128   002384                     l789:
  5129   002384  90D8               	bcf	status,0,c
  5130   002386  362E               	rlcf	___fldiv@grs^0,f,c
  5131   002388  362F               	rlcf	(___fldiv@grs+1)^0,f,c
  5132   00238A  3630               	rlcf	(___fldiv@grs+2)^0,f,c
  5133   00238C  3631               	rlcf	(___fldiv@grs+3)^0,f,c
  5134   00238E  062C               	decf	___fldiv@new_exp^0,f,c
  5135   002390  A0D8               	btfss	status,0,c
  5136   002392  062D               	decf	(___fldiv@new_exp+1)^0,f,c
  5137   002394                     l2270:
  5138   002394  AE1D               	btfss	(___fldiv@b+2)^0,7,c
  5139   002396  EFCF  F011         	goto	u2491
  5140   00239A  EFD1  F011         	goto	u2490
  5141   00239E                     u2491:
  5142   00239E  EFB5  F011         	goto	l2264
  5143   0023A2                     u2490:
  5144   0023A2  0E00               	movlw	0
  5145   0023A4  6E33               	movwf	___fldiv@aexp^0,c
  5146   0023A6  AE31               	btfss	(___fldiv@grs+3)^0,7,c
  5147   0023A8  EFD8  F011         	goto	u2501
  5148   0023AC  EFDA  F011         	goto	u2500
  5149   0023B0                     u2501:
  5150   0023B0  EFFE  F011         	goto	l791
  5151   0023B4                     u2500:
  5152   0023B4  0EFF               	movlw	255
  5153   0023B6  142E               	andwf	___fldiv@grs^0,w,c
  5154   0023B8  6E23               	movwf	??___fldiv^0,c
  5155   0023BA  0EFF               	movlw	255
  5156   0023BC  142F               	andwf	(___fldiv@grs+1)^0,w,c
  5157   0023BE  6E24               	movwf	(??___fldiv+1)^0,c
  5158   0023C0  0EFF               	movlw	255
  5159   0023C2  1430               	andwf	(___fldiv@grs+2)^0,w,c
  5160   0023C4  6E25               	movwf	(??___fldiv+2)^0,c
  5161   0023C6  0E7F               	movlw	127
  5162   0023C8  1431               	andwf	(___fldiv@grs+3)^0,w,c
  5163   0023CA  6E26               	movwf	(??___fldiv+3)^0,c
  5164   0023CC  5023               	movf	??___fldiv^0,w,c
  5165   0023CE  1024               	iorwf	(??___fldiv+1)^0,w,c
  5166   0023D0  1025               	iorwf	(??___fldiv+2)^0,w,c
  5167   0023D2  1026               	iorwf	(??___fldiv+3)^0,w,c
  5168   0023D4  B4D8               	btfsc	status,2,c
  5169   0023D6  EFEF  F011         	goto	u2511
  5170   0023DA  EFF1  F011         	goto	u2510
  5171   0023DE                     u2511:
  5172   0023DE  EFF5  F011         	goto	l792
  5173   0023E2                     u2510:
  5174   0023E2                     l2278:
  5175   0023E2  0E01               	movlw	1
  5176   0023E4  6E33               	movwf	___fldiv@aexp^0,c
  5177   0023E6  EFFE  F011         	goto	l791
  5178   0023EA                     l792:
  5179   0023EA  A01B               	btfss	___fldiv@b^0,0,c
  5180   0023EC  EFFA  F011         	goto	u2521
  5181   0023F0  EFFC  F011         	goto	u2520
  5182   0023F4                     u2521:
  5183   0023F4  EFFE  F011         	goto	l791
  5184   0023F8                     u2520:
  5185   0023F8  EFF1  F011         	goto	l2278
  5186   0023FC                     l791:
  5187   0023FC  5033               	movf	___fldiv@aexp^0,w,c
  5188   0023FE  B4D8               	btfsc	status,2,c
  5189   002400  EF04  F012         	goto	u2531
  5190   002404  EF06  F012         	goto	u2530
  5191   002408                     u2531:
  5192   002408  EF2A  F012         	goto	l2290
  5193   00240C                     u2530:
  5194   00240C  0E01               	movlw	1
  5195   00240E  261B               	addwf	___fldiv@b^0,f,c
  5196   002410  0E00               	movlw	0
  5197   002412  221C               	addwfc	(___fldiv@b+1)^0,f,c
  5198   002414  221D               	addwfc	(___fldiv@b+2)^0,f,c
  5199   002416  221E               	addwfc	(___fldiv@b+3)^0,f,c
  5200   002418  A01E               	btfss	(___fldiv@b+3)^0,0,c
  5201   00241A  EF11  F012         	goto	u2541
  5202   00241E  EF13  F012         	goto	u2540
  5203   002422                     u2541:
  5204   002422  EF2A  F012         	goto	l2290
  5205   002426                     u2540:
  5206   002426  C01B  F023         	movff	___fldiv@b,??___fldiv
  5207   00242A  C01C  F024         	movff	___fldiv@b+1,??___fldiv+1
  5208   00242E  C01D  F025         	movff	___fldiv@b+2,??___fldiv+2
  5209   002432  C01E  F026         	movff	___fldiv@b+3,??___fldiv+3
  5210   002436  3426               	rlcf	(??___fldiv+3)^0,w,c
  5211   002438  3226               	rrcf	(??___fldiv+3)^0,f,c
  5212   00243A  3225               	rrcf	(??___fldiv+2)^0,f,c
  5213   00243C  3224               	rrcf	(??___fldiv+1)^0,f,c
  5214   00243E  3223               	rrcf	??___fldiv^0,f,c
  5215   002440  C023  F01B         	movff	??___fldiv,___fldiv@b
  5216   002444  C024  F01C         	movff	??___fldiv+1,___fldiv@b+1
  5217   002448  C025  F01D         	movff	??___fldiv+2,___fldiv@b+2
  5218   00244C  C026  F01E         	movff	??___fldiv+3,___fldiv@b+3
  5219   002450  4A2C               	infsnz	___fldiv@new_exp^0,f,c
  5220   002452  2A2D               	incf	(___fldiv@new_exp+1)^0,f,c
  5221   002454                     l2290:
  5222   002454  BE2D               	btfsc	(___fldiv@new_exp+1)^0,7,c
  5223   002456  EF35  F012         	goto	u2551
  5224   00245A  502D               	movf	(___fldiv@new_exp+1)^0,w,c
  5225   00245C  E108               	bnz	u2550
  5226   00245E  282C               	incf	___fldiv@new_exp^0,w,c
  5227   002460  A0D8               	btfss	status,0,c
  5228   002462  EF35  F012         	goto	u2551
  5229   002466  EF37  F012         	goto	u2550
  5230   00246A                     u2551:
  5231   00246A  EF42  F012         	goto	l2294
  5232   00246E                     u2550:
  5233   00246E  0E00               	movlw	0
  5234   002470  6E2D               	movwf	(___fldiv@new_exp+1)^0,c
  5235   002472  682C               	setf	___fldiv@new_exp^0,c
  5236   002474  0E00               	movlw	0
  5237   002476  6E1B               	movwf	___fldiv@b^0,c
  5238   002478  0E00               	movlw	0
  5239   00247A  6E1C               	movwf	(___fldiv@b+1)^0,c
  5240   00247C  0E00               	movlw	0
  5241   00247E  6E1D               	movwf	(___fldiv@b+2)^0,c
  5242   002480  0E00               	movlw	0
  5243   002482  6E1E               	movwf	(___fldiv@b+3)^0,c
  5244   002484                     l2294:
  5245   002484  BE2D               	btfsc	(___fldiv@new_exp+1)^0,7,c
  5246   002486  EF4F  F012         	goto	u2560
  5247   00248A  502D               	movf	(___fldiv@new_exp+1)^0,w,c
  5248   00248C  E106               	bnz	u2561
  5249   00248E  042C               	decf	___fldiv@new_exp^0,w,c
  5250   002490  B0D8               	btfsc	status,0,c
  5251   002492  EF4D  F012         	goto	u2561
  5252   002496  EF4F  F012         	goto	u2560
  5253   00249A                     u2561:
  5254   00249A  EF5D  F012         	goto	l2298
  5255   00249E                     u2560:
  5256   00249E  0E00               	movlw	0
  5257   0024A0  6E2D               	movwf	(___fldiv@new_exp+1)^0,c
  5258   0024A2  0E00               	movlw	0
  5259   0024A4  6E2C               	movwf	___fldiv@new_exp^0,c
  5260   0024A6  0E00               	movlw	0
  5261   0024A8  6E1B               	movwf	___fldiv@b^0,c
  5262   0024AA  0E00               	movlw	0
  5263   0024AC  6E1C               	movwf	(___fldiv@b+1)^0,c
  5264   0024AE  0E00               	movlw	0
  5265   0024B0  6E1D               	movwf	(___fldiv@b+2)^0,c
  5266   0024B2  0E00               	movlw	0
  5267   0024B4  6E1E               	movwf	(___fldiv@b+3)^0,c
  5268   0024B6  0E00               	movlw	0
  5269   0024B8  6E2B               	movwf	___fldiv@sign^0,c
  5270   0024BA                     l2298:
  5271   0024BA  C02C  F032         	movff	___fldiv@new_exp,___fldiv@bexp
  5272   0024BE  A032               	btfss	___fldiv@bexp^0,0,c
  5273   0024C0  EF64  F012         	goto	u2571
  5274   0024C4  EF66  F012         	goto	u2570
  5275   0024C8                     u2571:
  5276   0024C8  EF69  F012         	goto	l2304
  5277   0024CC                     u2570:
  5278   0024CC  8E1D               	bsf	(___fldiv@b+2)^0,7,c
  5279   0024CE  EF6A  F012         	goto	l2306
  5280   0024D2                     l2304:
  5281   0024D2  9E1D               	bcf	(___fldiv@b+2)^0,7,c
  5282   0024D4                     l2306:
  5283   0024D4  90D8               	bcf	status,0,c
  5284   0024D6  3032               	rrcf	___fldiv@bexp^0,w,c
  5285   0024D8  6E1E               	movwf	(___fldiv@b+3)^0,c
  5286   0024DA  EF20  F011         	goto	l2220
  5287   0024DE                     l778:
  5288   0024DE  0012               	return		;funcret
  5289   0024E0                     __end_of___fldiv:
  5290                           	callstack 0
  5291                           
  5292 ;; *************** function _test *****************
  5293 ;; Defined at:
  5294 ;;		line 116 in file "./lcd.h"
  5295 ;; Parameters:    Size  Location     Type
  5296 ;;  s               1    wreg     unsigned char 
  5297 ;; Auto vars:     Size  Location     Type
  5298 ;;  s               1    9[COMRAM] unsigned char 
  5299 ;; Return value:  Size  Location     Type
  5300 ;;                  1    wreg      void 
  5301 ;; Registers used:
  5302 ;;		wreg, status,2, status,0, cstack
  5303 ;; Tracked objects:
  5304 ;;		On entry : 0/0
  5305 ;;		On exit  : 0/0
  5306 ;;		Unchanged: 0/0
  5307 ;; Data sizes:     COMRAM   BANK0   BANK1   BANK2   BANK3   BANK4   BANK5   BANK6   BANK7
  5308 ;;      Params:         0       0       0       0       0       0       0       0       0
  5309 ;;      Locals:         1       0       0       0       0       0       0       0       0
  5310 ;;      Temps:          0       0       0       0       0       0       0       0       0
  5311 ;;      Totals:         1       0       0       0       0       0       0       0       0
  5312 ;;Total ram usage:        1 bytes
  5313 ;; Hardware stack levels used: 1
  5314 ;; Hardware stack levels required when called: 3
  5315 ;; This function calls:
  5316 ;;		_lcd_char
  5317 ;; This function is called by:
  5318 ;;		_main
  5319 ;; This function uses a non-reentrant model
  5320 ;;
  5321                           
  5322                           	psect	text16
  5323   003020                     __ptext16:
  5324                           	callstack 0
  5325   003020                     _test:
  5326                           	callstack 27
  5327                           
  5328                           ;incstack = 0
  5329                           ;test@s stored from wreg
  5330   003020  6E0A               	movwf	test@s^0,c
  5331   003022                     
  5332                           ;./lcd.h: 119:     lcd_char(s);
  5333   003022  500A               	movf	test@s^0,w,c
  5334   003024  EC48  F016         	call	_lcd_char
  5335   003028  0012               	return		;funcret
  5336   00302A                     __end_of_test:
  5337                           	callstack 0
  5338                           
  5339 ;; *************** function _lcd_string *****************
  5340 ;; Defined at:
  5341 ;;		line 109 in file "./lcd.h"
  5342 ;; Parameters:    Size  Location     Type
  5343 ;;  a               1    9[COMRAM] PTR unsigned char 
  5344 ;;		 -> STR_1(5), 
  5345 ;; Auto vars:     Size  Location     Type
  5346 ;;  i               2   11[COMRAM] int 
  5347 ;; Return value:  Size  Location     Type
  5348 ;;                  1    wreg      void 
  5349 ;; Registers used:
  5350 ;;		wreg, status,2, status,0, tblptrl, tblptrh, tblptru, cstack
  5351 ;; Tracked objects:
  5352 ;;		On entry : 0/0
  5353 ;;		On exit  : 0/0
  5354 ;;		Unchanged: 0/0
  5355 ;; Data sizes:     COMRAM   BANK0   BANK1   BANK2   BANK3   BANK4   BANK5   BANK6   BANK7
  5356 ;;      Params:         1       0       0       0       0       0       0       0       0
  5357 ;;      Locals:         2       0       0       0       0       0       0       0       0
  5358 ;;      Temps:          1       0       0       0       0       0       0       0       0
  5359 ;;      Totals:         4       0       0       0       0       0       0       0       0
  5360 ;;Total ram usage:        4 bytes
  5361 ;; Hardware stack levels used: 1
  5362 ;; Hardware stack levels required when called: 3
  5363 ;; This function calls:
  5364 ;;		_lcd_char
  5365 ;; This function is called by:
  5366 ;;		_main
  5367 ;; This function uses a non-reentrant model
  5368 ;;
  5369                           
  5370                           	psect	text17
  5371   002F34                     __ptext17:
  5372                           	callstack 0
  5373   002F34                     _lcd_string:
  5374                           	callstack 27
  5375   002F34                     
  5376                           ;./lcd.h: 109: void lcd_string(char *a);./lcd.h: 110: {;./lcd.h: 111:     int i;;./lcd.h
      +                          : 112:     for(i=0;a[i]!='\0';i++)
  5377   002F34  0E00               	movlw	0
  5378   002F36  6E0D               	movwf	(lcd_string@i+1)^0,c
  5379   002F38  0E00               	movlw	0
  5380   002F3A  6E0C               	movwf	lcd_string@i^0,c
  5381   002F3C  EFAB  F017         	goto	l2614
  5382   002F40                     l2610:
  5383                           
  5384                           ;./lcd.h: 113:        lcd_char(a[i]);
  5385   002F40  500A               	movf	lcd_string@a^0,w,c
  5386   002F42  240C               	addwf	lcd_string@i^0,w,c
  5387   002F44  6E0B               	movwf	??_lcd_string^0,c
  5388   002F46  C00B  FFF6         	movff	??_lcd_string,tblptrl
  5389   002F4A                     	if	0	;There is only one active tblptr byte
  5390   002F4A                     	endif
  5391   002F4A                     	if	0	;tblptru may be non-zero
  5392   002F4A                     	endif
  5393   002F4A                     	if	0	;tblptru may be non-zero
  5394   002F4A                     	endif
  5395   002F4A  0008               	tblrd		*
  5396   002F4C  50F5               	movf	tablat,w,c
  5397   002F4E  EC48  F016         	call	_lcd_char
  5398   002F52  4A0C               	infsnz	lcd_string@i^0,f,c
  5399   002F54  2A0D               	incf	(lcd_string@i+1)^0,f,c
  5400   002F56                     l2614:
  5401   002F56  500A               	movf	lcd_string@a^0,w,c
  5402   002F58  240C               	addwf	lcd_string@i^0,w,c
  5403   002F5A  6E0B               	movwf	??_lcd_string^0,c
  5404   002F5C  C00B  FFF6         	movff	??_lcd_string,tblptrl
  5405   002F60                     	if	0	;There is only one active tblptr byte
  5406   002F60                     	endif
  5407   002F60                     	if	0	;tblptru may be non-zero
  5408   002F60                     	endif
  5409   002F60                     	if	0	;tblptru may be non-zero
  5410   002F60                     	endif
  5411   002F60  0008               	tblrd		*
  5412   002F62  50F5               	movf	tablat,w,c
  5413   002F64  0900               	iorlw	0
  5414   002F66  A4D8               	btfss	status,2,c
  5415   002F68  EFB8  F017         	goto	u2991
  5416   002F6C  EFBA  F017         	goto	u2990
  5417   002F70                     u2991:
  5418   002F70  EFA0  F017         	goto	l2610
  5419   002F74                     u2990:
  5420   002F74  0012               	return		;funcret
  5421   002F76                     __end_of_lcd_string:
  5422                           	callstack 0
  5423                           
  5424 ;; *************** function _lcd_char *****************
  5425 ;; Defined at:
  5426 ;;		line 93 in file "./lcd.h"
  5427 ;; Parameters:    Size  Location     Type
  5428 ;;  data            1    wreg     unsigned char 
  5429 ;; Auto vars:     Size  Location     Type
  5430 ;;  data            1    4[COMRAM] unsigned char 
  5431 ;;  i               2    7[COMRAM] int 
  5432 ;;  i               2    5[COMRAM] int 
  5433 ;;  Upper_Nibble    1    3[COMRAM] unsigned char 
  5434 ;;  Lower_Nibble    1    2[COMRAM] unsigned char 
  5435 ;; Return value:  Size  Location     Type
  5436 ;;                  1    wreg      void 
  5437 ;; Registers used:
  5438 ;;		wreg, status,2, status,0, cstack
  5439 ;; Tracked objects:
  5440 ;;		On entry : 0/0
  5441 ;;		On exit  : 0/0
  5442 ;;		Unchanged: 0/0
  5443 ;; Data sizes:     COMRAM   BANK0   BANK1   BANK2   BANK3   BANK4   BANK5   BANK6   BANK7
  5444 ;;      Params:         0       0       0       0       0       0       0       0       0
  5445 ;;      Locals:         7       0       0       0       0       0       0       0       0
  5446 ;;      Temps:          0       0       0       0       0       0       0       0       0
  5447 ;;      Totals:         7       0       0       0       0       0       0       0       0
  5448 ;;Total ram usage:        7 bytes
  5449 ;; Hardware stack levels used: 1
  5450 ;; Hardware stack levels required when called: 2
  5451 ;; This function calls:
  5452 ;;		_lcd_set_bit
  5453 ;; This function is called by:
  5454 ;;		_lcd_string
  5455 ;;		_test
  5456 ;; This function uses a non-reentrant model
  5457 ;;
  5458                           
  5459                           	psect	text18
  5460   002C90                     __ptext18:
  5461                           	callstack 0
  5462   002C90                     _lcd_char:
  5463                           	callstack 27
  5464                           
  5465                           ;incstack = 0
  5466                           ;lcd_char@data stored from wreg
  5467   002C90  6E05               	movwf	lcd_char@data^0,c
  5468   002C92                     
  5469                           ;./lcd.h: 93: void lcd_char(char data);./lcd.h: 94: {;./lcd.h: 95:    char Lower_Nibble,
      +                          Upper_Nibble;;./lcd.h: 96:    Lower_Nibble = data&0x0F;
  5470   002C92  5005               	movf	lcd_char@data^0,w,c
  5471   002C94  0B0F               	andlw	15
  5472   002C96  6E03               	movwf	lcd_char@Lower_Nibble^0,c
  5473                           
  5474                           ;./lcd.h: 97:    Upper_Nibble = data&0xF0;
  5475   002C98  5005               	movf	lcd_char@data^0,w,c
  5476   002C9A  0BF0               	andlw	240
  5477   002C9C  6E04               	movwf	lcd_char@Upper_Nibble^0,c
  5478   002C9E                     
  5479                           ;./lcd.h: 98:    LATDbits.LATD2 = 1;
  5480   002C9E  848C               	bsf	140,2,c	;volatile
  5481   002CA0                     
  5482                           ;./lcd.h: 99:    lcd_set_bit(Upper_Nibble>>4);
  5483   002CA0  3804               	swapf	lcd_char@Upper_Nibble^0,w,c
  5484   002CA2  0B0F               	andlw	15
  5485   002CA4  EC21  F017         	call	_lcd_set_bit
  5486   002CA8                     
  5487                           ;./lcd.h: 100:    LATDbits.LATD3 = 1;
  5488   002CA8  868C               	bsf	140,3,c	;volatile
  5489   002CAA                     
  5490                           ;./lcd.h: 101:    for(int i=2130483; i<=0; i--) __nop();
  5491   002CAA  0E82               	movlw	130
  5492   002CAC  6E07               	movwf	(lcd_char@i+1)^0,c
  5493   002CAE  0E33               	movlw	51
  5494   002CB0  6E06               	movwf	lcd_char@i^0,c
  5495   002CB2                     l97:
  5496   002CB2  0000               	nop	
  5497   002CB4  0606               	decf	lcd_char@i^0,f,c
  5498   002CB6  A0D8               	btfss	status,0,c
  5499   002CB8  0607               	decf	(lcd_char@i+1)^0,f,c
  5500   002CBA  BE07               	btfsc	(lcd_char@i+1)^0,7,c
  5501   002CBC  EF68  F016         	goto	u2281
  5502   002CC0  5007               	movf	(lcd_char@i+1)^0,w,c
  5503   002CC2  E108               	bnz	u2280
  5504   002CC4  0406               	decf	lcd_char@i^0,w,c
  5505   002CC6  A0D8               	btfss	status,0,c
  5506   002CC8  EF68  F016         	goto	u2281
  5507   002CCC  EF6A  F016         	goto	u2280
  5508   002CD0                     u2281:
  5509   002CD0  EF59  F016         	goto	l97
  5510   002CD4                     u2280:
  5511   002CD4                     
  5512                           ;./lcd.h: 102:    LATDbits.LATD3 = 0;
  5513   002CD4  968C               	bcf	140,3,c	;volatile
  5514   002CD6                     
  5515                           ;./lcd.h: 103:    lcd_set_bit(Lower_Nibble);
  5516   002CD6  5003               	movf	lcd_char@Lower_Nibble^0,w,c
  5517   002CD8  EC21  F017         	call	_lcd_set_bit
  5518   002CDC                     
  5519                           ;./lcd.h: 104:    LATDbits.LATD3 = 1;
  5520   002CDC  868C               	bsf	140,3,c	;volatile
  5521   002CDE                     
  5522                           ;./lcd.h: 105:    for(int i=2130483; i<=0; i--) __nop();
  5523   002CDE  0E82               	movlw	130
  5524   002CE0  6E09               	movwf	(lcd_char@i_172+1)^0,c
  5525   002CE2  0E33               	movlw	51
  5526   002CE4  6E08               	movwf	lcd_char@i_172^0,c
  5527   002CE6                     l99:
  5528   002CE6  0000               	nop	
  5529   002CE8  0608               	decf	lcd_char@i_172^0,f,c
  5530   002CEA  A0D8               	btfss	status,0,c
  5531   002CEC  0609               	decf	(lcd_char@i_172+1)^0,f,c
  5532   002CEE  BE09               	btfsc	(lcd_char@i_172+1)^0,7,c
  5533   002CF0  EF82  F016         	goto	u2291
  5534   002CF4  5009               	movf	(lcd_char@i_172+1)^0,w,c
  5535   002CF6  E108               	bnz	u2290
  5536   002CF8  0408               	decf	lcd_char@i_172^0,w,c
  5537   002CFA  A0D8               	btfss	status,0,c
  5538   002CFC  EF82  F016         	goto	u2291
  5539   002D00  EF84  F016         	goto	u2290
  5540   002D04                     u2291:
  5541   002D04  EF73  F016         	goto	l99
  5542   002D08                     u2290:
  5543   002D08                     
  5544                           ;./lcd.h: 106:    LATDbits.LATD3 = 0;
  5545   002D08  968C               	bcf	140,3,c	;volatile
  5546   002D0A  0012               	return		;funcret
  5547   002D0C                     __end_of_lcd_char:
  5548                           	callstack 0
  5549                           
  5550 ;; *************** function _lcd_set_cursor *****************
  5551 ;; Defined at:
  5552 ;;		line 54 in file "./lcd.h"
  5553 ;; Parameters:    Size  Location     Type
  5554 ;;  a               1    wreg     unsigned char 
  5555 ;;  b               1    4[COMRAM] unsigned char 
  5556 ;; Auto vars:     Size  Location     Type
  5557 ;;  a               1    5[COMRAM] unsigned char 
  5558 ;;  temp            1    8[COMRAM] unsigned char 
  5559 ;;  y               1    7[COMRAM] unsigned char 
  5560 ;;  z               1    6[COMRAM] unsigned char 
  5561 ;; Return value:  Size  Location     Type
  5562 ;;                  1    wreg      void 
  5563 ;; Registers used:
  5564 ;;		wreg, status,2, status,0, cstack
  5565 ;; Tracked objects:
  5566 ;;		On entry : 0/0
  5567 ;;		On exit  : 0/0
  5568 ;;		Unchanged: 0/0
  5569 ;; Data sizes:     COMRAM   BANK0   BANK1   BANK2   BANK3   BANK4   BANK5   BANK6   BANK7
  5570 ;;      Params:         1       0       0       0       0       0       0       0       0
  5571 ;;      Locals:         4       0       0       0       0       0       0       0       0
  5572 ;;      Temps:          0       0       0       0       0       0       0       0       0
  5573 ;;      Totals:         5       0       0       0       0       0       0       0       0
  5574 ;;Total ram usage:        5 bytes
  5575 ;; Hardware stack levels used: 1
  5576 ;; Hardware stack levels required when called: 3
  5577 ;; This function calls:
  5578 ;;		_lcd_cmd
  5579 ;; This function is called by:
  5580 ;;		_main
  5581 ;; This function uses a non-reentrant model
  5582 ;;
  5583                           
  5584                           	psect	text19
  5585   002D7A                     __ptext19:
  5586                           	callstack 0
  5587   002D7A                     _lcd_set_cursor:
  5588                           	callstack 27
  5589                           
  5590                           ;incstack = 0
  5591                           ;lcd_set_cursor@a stored from wreg
  5592   002D7A  6E06               	movwf	lcd_set_cursor@a^0,c
  5593   002D7C                     
  5594                           ;./lcd.h: 54: void lcd_set_cursor(char a, char b);./lcd.h: 55: {;./lcd.h: 56:     char t
      +                          emp,z,y;;./lcd.h: 57:     if(a== 1)
  5595   002D7C  0406               	decf	lcd_set_cursor@a^0,w,c
  5596   002D7E  A4D8               	btfss	status,2,c
  5597   002D80  EFC4  F016         	goto	u2971
  5598   002D84  EFC6  F016         	goto	u2970
  5599   002D88                     u2971:
  5600   002D88  EFD7  F016         	goto	l2566
  5601   002D8C                     u2970:
  5602   002D8C                     
  5603                           ;./lcd.h: 58:     {;./lcd.h: 59:       temp = 0x80 + b - 1;
  5604   002D8C  5005               	movf	lcd_set_cursor@b^0,w,c
  5605   002D8E  0F7F               	addlw	127
  5606   002D90  6E09               	movwf	lcd_set_cursor@temp^0,c
  5607                           
  5608                           ;./lcd.h: 60:         z = temp>>4;
  5609   002D92  3809               	swapf	lcd_set_cursor@temp^0,w,c
  5610   002D94  0B0F               	andlw	15
  5611   002D96  6E07               	movwf	lcd_set_cursor@z^0,c
  5612                           
  5613                           ;./lcd.h: 61:         y = temp & 0x0F;
  5614   002D98  5009               	movf	lcd_set_cursor@temp^0,w,c
  5615   002D9A  0B0F               	andlw	15
  5616   002D9C  6E08               	movwf	lcd_set_cursor@y^0,c
  5617   002D9E                     
  5618                           ;./lcd.h: 62:         lcd_cmd(z);
  5619   002D9E  5007               	movf	lcd_set_cursor@z^0,w,c
  5620   002DA0  ECF4  F017         	call	_lcd_cmd
  5621   002DA4                     
  5622                           ;./lcd.h: 63:         lcd_cmd(y);
  5623   002DA4  5008               	movf	lcd_set_cursor@y^0,w,c
  5624   002DA6  ECF4  F017         	call	_lcd_cmd
  5625                           
  5626                           ;./lcd.h: 64:     }
  5627   002DAA  EFEF  F016         	goto	l89
  5628   002DAE                     l2566:
  5629   002DAE  0E02               	movlw	2
  5630   002DB0  1806               	xorwf	lcd_set_cursor@a^0,w,c
  5631   002DB2  A4D8               	btfss	status,2,c
  5632   002DB4  EFDE  F016         	goto	u2981
  5633   002DB8  EFE0  F016         	goto	u2980
  5634   002DBC                     u2981:
  5635   002DBC  EFEF  F016         	goto	l89
  5636   002DC0                     u2980:
  5637   002DC0                     
  5638                           ;./lcd.h: 66:     {;./lcd.h: 67:         temp = 0xC0 + b - 1;
  5639   002DC0  5005               	movf	lcd_set_cursor@b^0,w,c
  5640   002DC2  0FBF               	addlw	191
  5641   002DC4  6E09               	movwf	lcd_set_cursor@temp^0,c
  5642                           
  5643                           ;./lcd.h: 68:         z = temp>>4;
  5644   002DC6  3809               	swapf	lcd_set_cursor@temp^0,w,c
  5645   002DC8  0B0F               	andlw	15
  5646   002DCA  6E07               	movwf	lcd_set_cursor@z^0,c
  5647                           
  5648                           ;./lcd.h: 69:         y = temp & 0x0F;
  5649   002DCC  5009               	movf	lcd_set_cursor@temp^0,w,c
  5650   002DCE  0B0F               	andlw	15
  5651   002DD0  6E08               	movwf	lcd_set_cursor@y^0,c
  5652   002DD2                     
  5653                           ;./lcd.h: 70:         lcd_cmd(z);
  5654   002DD2  5007               	movf	lcd_set_cursor@z^0,w,c
  5655   002DD4  ECF4  F017         	call	_lcd_cmd
  5656   002DD8                     
  5657                           ;./lcd.h: 71:         lcd_cmd(y);
  5658   002DD8  5008               	movf	lcd_set_cursor@y^0,w,c
  5659   002DDA  ECF4  F017         	call	_lcd_cmd
  5660   002DDE                     l89:
  5661   002DDE  0012               	return		;funcret
  5662   002DE0                     __end_of_lcd_set_cursor:
  5663                           	callstack 0
  5664                           
  5665 ;; *************** function _lcd_init *****************
  5666 ;; Defined at:
  5667 ;;		line 75 in file "./lcd.h"
  5668 ;; Parameters:    Size  Location     Type
  5669 ;;		None
  5670 ;; Auto vars:     Size  Location     Type
  5671 ;;  i               2    0        int 
  5672 ;; Return value:  Size  Location     Type
  5673 ;;                  1    wreg      void 
  5674 ;; Registers used:
  5675 ;;		wreg, status,2, cstack
  5676 ;; Tracked objects:
  5677 ;;		On entry : 0/0
  5678 ;;		On exit  : 0/0
  5679 ;;		Unchanged: 0/0
  5680 ;; Data sizes:     COMRAM   BANK0   BANK1   BANK2   BANK3   BANK4   BANK5   BANK6   BANK7
  5681 ;;      Params:         0       0       0       0       0       0       0       0       0
  5682 ;;      Locals:         0       0       0       0       0       0       0       0       0
  5683 ;;      Temps:          1       0       0       0       0       0       0       0       0
  5684 ;;      Totals:         1       0       0       0       0       0       0       0       0
  5685 ;;Total ram usage:        1 bytes
  5686 ;; Hardware stack levels used: 1
  5687 ;; Hardware stack levels required when called: 3
  5688 ;; This function calls:
  5689 ;;		_lcd_cmd
  5690 ;;		_lcd_set_bit
  5691 ;; This function is called by:
  5692 ;;		_main
  5693 ;; This function uses a non-reentrant model
  5694 ;;
  5695                           
  5696                           	psect	text20
  5697   002DE0                     __ptext20:
  5698                           	callstack 0
  5699   002DE0                     _lcd_init:
  5700                           	callstack 27
  5701   002DE0                     
  5702                           ;./lcd.h: 77:   lcd_set_bit(0x00);
  5703   002DE0  0E00               	movlw	0
  5704   002DE2  EC21  F017         	call	_lcd_set_bit
  5705   002DE6                     
  5706                           ;./lcd.h: 79:   lcd_cmd(0x03);
  5707   002DE6  0E03               	movlw	3
  5708   002DE8  ECF4  F017         	call	_lcd_cmd
  5709   002DEC                     
  5710                           ;./lcd.h: 80:   _delay((unsigned long)((5)*(8000000/4000.0)));
  5711   002DEC  0E0D               	movlw	13
  5712   002DEE  6E05               	movwf	??_lcd_init^0,c
  5713   002DF0  0EFC               	movlw	252
  5714   002DF2                     u3407:
  5715   002DF2  2EE8               	decfsz	wreg,f,c
  5716   002DF4  D7FE               	bra	u3407
  5717   002DF6  2E05               	decfsz	??_lcd_init^0,f,c
  5718   002DF8  D7FC               	bra	u3407
  5719   002DFA                     
  5720                           ;./lcd.h: 81:   lcd_cmd(0x03);
  5721   002DFA  0E03               	movlw	3
  5722   002DFC  ECF4  F017         	call	_lcd_cmd
  5723                           
  5724                           ;./lcd.h: 82:   _delay((unsigned long)((11)*(8000000/4000.0)));
  5725   002E00  0E1D               	movlw	29
  5726   002E02  6E05               	movwf	??_lcd_init^0,c
  5727   002E04  0E91               	movlw	145
  5728   002E06                     u3417:
  5729   002E06  2EE8               	decfsz	wreg,f,c
  5730   002E08  D7FE               	bra	u3417
  5731   002E0A  2E05               	decfsz	??_lcd_init^0,f,c
  5732   002E0C  D7FC               	bra	u3417
  5733   002E0E  0000               	nop	
  5734   002E10                     
  5735                           ;./lcd.h: 83:   lcd_cmd(0x03);
  5736   002E10  0E03               	movlw	3
  5737   002E12  ECF4  F017         	call	_lcd_cmd
  5738   002E16                     
  5739                           ;./lcd.h: 84:   lcd_cmd(0x02);
  5740   002E16  0E02               	movlw	2
  5741   002E18  ECF4  F017         	call	_lcd_cmd
  5742   002E1C                     
  5743                           ;./lcd.h: 85:   lcd_cmd(0x02);
  5744   002E1C  0E02               	movlw	2
  5745   002E1E  ECF4  F017         	call	_lcd_cmd
  5746   002E22                     
  5747                           ;./lcd.h: 86:   lcd_cmd(0x08);
  5748   002E22  0E08               	movlw	8
  5749   002E24  ECF4  F017         	call	_lcd_cmd
  5750   002E28                     
  5751                           ;./lcd.h: 87:   lcd_cmd(0x00);
  5752   002E28  0E00               	movlw	0
  5753   002E2A  ECF4  F017         	call	_lcd_cmd
  5754   002E2E                     
  5755                           ;./lcd.h: 88:   lcd_cmd(0x0C);
  5756   002E2E  0E0C               	movlw	12
  5757   002E30  ECF4  F017         	call	_lcd_cmd
  5758   002E34                     
  5759                           ;./lcd.h: 89:   lcd_cmd(0x00);
  5760   002E34  0E00               	movlw	0
  5761   002E36  ECF4  F017         	call	_lcd_cmd
  5762   002E3A                     
  5763                           ;./lcd.h: 90:   lcd_cmd(0x06);
  5764   002E3A  0E06               	movlw	6
  5765   002E3C  ECF4  F017         	call	_lcd_cmd
  5766   002E40  0012               	return		;funcret
  5767   002E42                     __end_of_lcd_init:
  5768                           	callstack 0
  5769                           
  5770 ;; *************** function _lcd_clear *****************
  5771 ;; Defined at:
  5772 ;;		line 48 in file "./lcd.h"
  5773 ;; Parameters:    Size  Location     Type
  5774 ;;		None
  5775 ;; Auto vars:     Size  Location     Type
  5776 ;;		None
  5777 ;; Return value:  Size  Location     Type
  5778 ;;                  2   82[None  ] int 
  5779 ;; Registers used:
  5780 ;;		wreg, status,2, cstack
  5781 ;; Tracked objects:
  5782 ;;		On entry : 0/0
  5783 ;;		On exit  : 0/0
  5784 ;;		Unchanged: 0/0
  5785 ;; Data sizes:     COMRAM   BANK0   BANK1   BANK2   BANK3   BANK4   BANK5   BANK6   BANK7
  5786 ;;      Params:         0       0       0       0       0       0       0       0       0
  5787 ;;      Locals:         0       0       0       0       0       0       0       0       0
  5788 ;;      Temps:          0       0       0       0       0       0       0       0       0
  5789 ;;      Totals:         0       0       0       0       0       0       0       0       0
  5790 ;;Total ram usage:        0 bytes
  5791 ;; Hardware stack levels used: 1
  5792 ;; Hardware stack levels required when called: 3
  5793 ;; This function calls:
  5794 ;;		_lcd_cmd
  5795 ;; This function is called by:
  5796 ;;		_main
  5797 ;; This function uses a non-reentrant model
  5798 ;;
  5799                           
  5800                           	psect	text21
  5801   003008                     __ptext21:
  5802                           	callstack 0
  5803   003008                     _lcd_clear:
  5804                           	callstack 27
  5805   003008                     
  5806                           ;./lcd.h: 50:     lcd_cmd(0);
  5807   003008  0E00               	movlw	0
  5808   00300A  ECF4  F017         	call	_lcd_cmd
  5809                           
  5810                           ;./lcd.h: 51:     lcd_cmd(1);
  5811   00300E  0E01               	movlw	1
  5812   003010  ECF4  F017         	call	_lcd_cmd
  5813   003014  0012               	return		;funcret
  5814   003016                     __end_of_lcd_clear:
  5815                           	callstack 0
  5816                           
  5817 ;; *************** function _lcd_cmd *****************
  5818 ;; Defined at:
  5819 ;;		line 39 in file "./lcd.h"
  5820 ;; Parameters:    Size  Location     Type
  5821 ;;  a               1    wreg     unsigned char 
  5822 ;; Auto vars:     Size  Location     Type
  5823 ;;  a               1    3[COMRAM] unsigned char 
  5824 ;; Return value:  Size  Location     Type
  5825 ;;                  1    wreg      void 
  5826 ;; Registers used:
  5827 ;;		wreg, status,2, cstack
  5828 ;; Tracked objects:
  5829 ;;		On entry : 0/0
  5830 ;;		On exit  : 0/0
  5831 ;;		Unchanged: 0/0
  5832 ;; Data sizes:     COMRAM   BANK0   BANK1   BANK2   BANK3   BANK4   BANK5   BANK6   BANK7
  5833 ;;      Params:         0       0       0       0       0       0       0       0       0
  5834 ;;      Locals:         1       0       0       0       0       0       0       0       0
  5835 ;;      Temps:          1       0       0       0       0       0       0       0       0
  5836 ;;      Totals:         2       0       0       0       0       0       0       0       0
  5837 ;;Total ram usage:        2 bytes
  5838 ;; Hardware stack levels used: 1
  5839 ;; Hardware stack levels required when called: 2
  5840 ;; This function calls:
  5841 ;;		_lcd_set_bit
  5842 ;; This function is called by:
  5843 ;;		_lcd_clear
  5844 ;;		_lcd_set_cursor
  5845 ;;		_lcd_init
  5846 ;; This function uses a non-reentrant model
  5847 ;;
  5848                           
  5849                           	psect	text22
  5850   002FE8                     __ptext22:
  5851                           	callstack 0
  5852   002FE8                     _lcd_cmd:
  5853                           	callstack 27
  5854                           
  5855                           ;incstack = 0
  5856                           ;lcd_cmd@a stored from wreg
  5857   002FE8  6E04               	movwf	lcd_cmd@a^0,c
  5858   002FEA                     
  5859                           ;./lcd.h: 39: void lcd_cmd(char a);./lcd.h: 40: {;./lcd.h: 41:     LATDbits.LATD2 = 0;
  5860   002FEA  948C               	bcf	140,2,c	;volatile
  5861   002FEC                     
  5862                           ;./lcd.h: 42:     lcd_set_bit(a);
  5863   002FEC  5004               	movf	lcd_cmd@a^0,w,c
  5864   002FEE  EC21  F017         	call	_lcd_set_bit
  5865   002FF2                     
  5866                           ;./lcd.h: 43:     LATDbits.LATD3 = 1;
  5867   002FF2  868C               	bsf	140,3,c	;volatile
  5868   002FF4                     
  5869                           ;./lcd.h: 44:     _delay((unsigned long)((4)*(8000000/4000.0)));
  5870   002FF4  0E0B               	movlw	11
  5871   002FF6  6E03               	movwf	??_lcd_cmd^0,c
  5872   002FF8  0E62               	movlw	98
  5873   002FFA                     u3427:
  5874   002FFA  2EE8               	decfsz	wreg,f,c
  5875   002FFC  D7FE               	bra	u3427
  5876   002FFE  2E03               	decfsz	??_lcd_cmd^0,f,c
  5877   003000  D7FC               	bra	u3427
  5878   003002  D000               	nop2	
  5879   003004                     
  5880                           ;./lcd.h: 45:     LATDbits.LATD3 = 0;
  5881   003004  968C               	bcf	140,3,c	;volatile
  5882   003006  0012               	return		;funcret
  5883   003008                     __end_of_lcd_cmd:
  5884                           	callstack 0
  5885                           
  5886 ;; *************** function _lcd_set_bit *****************
  5887 ;; Defined at:
  5888 ;;		line 16 in file "./lcd.h"
  5889 ;; Parameters:    Size  Location     Type
  5890 ;;  data_bit        1    wreg     unsigned char 
  5891 ;; Auto vars:     Size  Location     Type
  5892 ;;  data_bit        1    1[COMRAM] unsigned char 
  5893 ;; Return value:  Size  Location     Type
  5894 ;;                  1    wreg      void 
  5895 ;; Registers used:
  5896 ;;		wreg
  5897 ;; Tracked objects:
  5898 ;;		On entry : 0/0
  5899 ;;		On exit  : 0/0
  5900 ;;		Unchanged: 0/0
  5901 ;; Data sizes:     COMRAM   BANK0   BANK1   BANK2   BANK3   BANK4   BANK5   BANK6   BANK7
  5902 ;;      Params:         0       0       0       0       0       0       0       0       0
  5903 ;;      Locals:         1       0       0       0       0       0       0       0       0
  5904 ;;      Temps:          0       0       0       0       0       0       0       0       0
  5905 ;;      Totals:         1       0       0       0       0       0       0       0       0
  5906 ;;Total ram usage:        1 bytes
  5907 ;; Hardware stack levels used: 1
  5908 ;; Hardware stack levels required when called: 1
  5909 ;; This function calls:
  5910 ;;		Nothing
  5911 ;; This function is called by:
  5912 ;;		_lcd_cmd
  5913 ;;		_lcd_init
  5914 ;;		_lcd_char
  5915 ;; This function uses a non-reentrant model
  5916 ;;
  5917                           
  5918                           	psect	text23
  5919   002E42                     __ptext23:
  5920                           	callstack 0
  5921   002E42                     _lcd_set_bit:
  5922                           	callstack 27
  5923                           
  5924                           ;incstack = 0
  5925                           ;lcd_set_bit@data_bit stored from wreg
  5926   002E42  6E02               	movwf	lcd_set_bit@data_bit^0,c
  5927   002E44                     
  5928                           ;./lcd.h: 16: void lcd_set_bit(char data_bit);./lcd.h: 17: {;./lcd.h: 18:     if(data_bi
      +                          t& 1)
  5929   002E44  A002               	btfss	lcd_set_bit@data_bit^0,0,c
  5930   002E46  EF27  F017         	goto	u1721
  5931   002E4A  EF29  F017         	goto	u1720
  5932   002E4E                     u1721:
  5933   002E4E  EF2C  F017         	goto	l69
  5934   002E52                     u1720:
  5935   002E52                     
  5936                           ;./lcd.h: 19:         LATDbits.LATD4 = 1;
  5937   002E52  888C               	bsf	140,4,c	;volatile
  5938   002E54  EF2D  F017         	goto	l1844
  5939   002E58                     l69:
  5940                           
  5941                           ;./lcd.h: 21:         LATDbits.LATD4 = 0;
  5942   002E58  988C               	bcf	140,4,c	;volatile
  5943   002E5A                     l1844:
  5944                           
  5945                           ;./lcd.h: 23:     if(data_bit& 2)
  5946   002E5A  A202               	btfss	lcd_set_bit@data_bit^0,1,c
  5947   002E5C  EF32  F017         	goto	u1731
  5948   002E60  EF34  F017         	goto	u1730
  5949   002E64                     u1731:
  5950   002E64  EF37  F017         	goto	l71
  5951   002E68                     u1730:
  5952   002E68                     
  5953                           ;./lcd.h: 24:         LATDbits.LATD5 = 1;
  5954   002E68  8A8C               	bsf	140,5,c	;volatile
  5955   002E6A  EF38  F017         	goto	l1848
  5956   002E6E                     l71:
  5957                           
  5958                           ;./lcd.h: 26:         LATDbits.LATD5 = 0;
  5959   002E6E  9A8C               	bcf	140,5,c	;volatile
  5960   002E70                     l1848:
  5961                           
  5962                           ;./lcd.h: 28:     if(data_bit& 4)
  5963   002E70  A402               	btfss	lcd_set_bit@data_bit^0,2,c
  5964   002E72  EF3D  F017         	goto	u1741
  5965   002E76  EF3F  F017         	goto	u1740
  5966   002E7A                     u1741:
  5967   002E7A  EF42  F017         	goto	l73
  5968   002E7E                     u1740:
  5969   002E7E                     
  5970                           ;./lcd.h: 29:         LATDbits.LATD6 = 1;
  5971   002E7E  8C8C               	bsf	140,6,c	;volatile
  5972   002E80  EF43  F017         	goto	l1852
  5973   002E84                     l73:
  5974                           
  5975                           ;./lcd.h: 31:         LATDbits.LATD6 = 0;
  5976   002E84  9C8C               	bcf	140,6,c	;volatile
  5977   002E86                     l1852:
  5978                           
  5979                           ;./lcd.h: 33:     if(data_bit& 8)
  5980   002E86  A602               	btfss	lcd_set_bit@data_bit^0,3,c
  5981   002E88  EF48  F017         	goto	u1751
  5982   002E8C  EF4A  F017         	goto	u1750
  5983   002E90                     u1751:
  5984   002E90  EF4D  F017         	goto	l75
  5985   002E94                     u1750:
  5986   002E94                     
  5987                           ;./lcd.h: 34:         LATDbits.LATD7 = 1;
  5988   002E94  8E8C               	bsf	140,7,c	;volatile
  5989   002E96  EF4E  F017         	goto	l77
  5990   002E9A                     l75:
  5991                           
  5992                           ;./lcd.h: 36:         LATDbits.LATD7 = 0;
  5993   002E9A  9E8C               	bcf	140,7,c	;volatile
  5994   002E9C                     l77:
  5995   002E9C  0012               	return		;funcret
  5996   002E9E                     __end_of_lcd_set_bit:
  5997                           	callstack 0
  5998                           
  5999 ;; *************** function _low_isr *****************
  6000 ;; Defined at:
  6001 ;;		line 37 in file "tx_main.c"
  6002 ;; Parameters:    Size  Location     Type
  6003 ;;		None
  6004 ;; Auto vars:     Size  Location     Type
  6005 ;;		None
  6006 ;; Return value:  Size  Location     Type
  6007 ;;                  1    wreg      void 
  6008 ;; Registers used:
  6009 ;;		None
  6010 ;; Tracked objects:
  6011 ;;		On entry : 0/0
  6012 ;;		On exit  : 0/0
  6013 ;;		Unchanged: 0/0
  6014 ;; Data sizes:     COMRAM   BANK0   BANK1   BANK2   BANK3   BANK4   BANK5   BANK6   BANK7
  6015 ;;      Params:         0       0       0       0       0       0       0       0       0
  6016 ;;      Locals:         0       0       0       0       0       0       0       0       0
  6017 ;;      Temps:          1       0       0       0       0       0       0       0       0
  6018 ;;      Totals:         1       0       0       0       0       0       0       0       0
  6019 ;;Total ram usage:        1 bytes
  6020 ;; Hardware stack levels used: 1
  6021 ;; This function calls:
  6022 ;;		Nothing
  6023 ;; This function is called by:
  6024 ;;		Interrupt level 1
  6025 ;; This function uses a non-reentrant model
  6026 ;;
  6027                           
  6028                           	psect	intcodelo
  6029   000018                     __pintcodelo:
  6030                           	callstack 0
  6031   000018                     _low_isr:
  6032                           	callstack 27
  6033                           
  6034                           ;incstack = 0
  6035   000018  805E               	bsf	int$flags,0,c	;set compiler interrupt flag (level 1)
  6036   00001A  CFE0 F001          	movff	bsr,??_low_isr
  6037   00001E  C001  FFE0         	movff	??_low_isr,bsr
  6038   000022  905E               	bcf	int$flags,0,c	;clear compiler interrupt flag (level 1)
  6039   000024  0010               	retfie	
  6040   000026                     __end_of_low_isr:
  6041                           	callstack 0
  6042                           
  6043                           	psect	rparam
  6044   000000                     
  6045                           	psect	temp
  6046   00005E                     btemp:
  6047                           	callstack 0
  6048   00005E                     	ds	1
  6049   000000                     int$flags	set	btemp
  6050   000000                     wtemp8	set	btemp+1
  6051   000000                     ttemp5	set	btemp+1
  6052   000000                     ttemp6	set	btemp+4
  6053   000000                     ttemp7	set	btemp+8
  6054                           
  6055                           	psect	config
  6056                           
  6057                           ;Config register CONFIG2L @ 0x300002
  6058                           ;	unspecified, using default values
  6059                           ;	Power-up Timer Enable bit
  6060                           ;	PWRT = 0x1, unprogrammed default
  6061                           ;	Brown-out Reset Enable bits
  6062                           ;	BOR = 0x3, unprogrammed default
  6063                           ;	Brown-out Reset Voltage bits
  6064                           ;	BORV = 0x3, unprogrammed default
  6065                           ;	USB Voltage Regulator Enable bit
  6066                           ;	VREGEN = 0x0, unprogrammed default
  6067   300002                     	org	3145730
  6068   300002  1F                 	db	31
  6069                           
  6070                           ;Config register CONFIG2H @ 0x300003
  6071                           ;	Watchdog Timer Enable bit
  6072                           ;	WDT = OFF, WDT disabled (control is placed on the SWDTEN bit)
  6073                           ;	Watchdog Timer Postscale Select bits
  6074                           ;	WDTPS = 0xF, unprogrammed default
  6075   300003                     	org	3145731
  6076   300003  1E                 	db	30
  6077                           tosu	equ	0xFFF
  6078                           tosh	equ	0xFFE
  6079                           tosl	equ	0xFFD
  6080                           stkptr	equ	0xFFC
  6081                           pclatu	equ	0xFFB
  6082                           pclath	equ	0xFFA
  6083                           pcl	equ	0xFF9
  6084                           tblptru	equ	0xFF8
  6085                           tblptrh	equ	0xFF7
  6086                           tblptrl	equ	0xFF6
  6087                           tablat	equ	0xFF5
  6088                           prodh	equ	0xFF4
  6089                           prodl	equ	0xFF3
  6090                           indf0	equ	0xFEF
  6091                           postinc0	equ	0xFEE
  6092                           postdec0	equ	0xFED
  6093                           preinc0	equ	0xFEC
  6094                           plusw0	equ	0xFEB
  6095                           fsr0h	equ	0xFEA
  6096                           fsr0l	equ	0xFE9
  6097                           wreg	equ	0xFE8
  6098                           indf1	equ	0xFE7
  6099                           postinc1	equ	0xFE6
  6100                           postdec1	equ	0xFE5
  6101                           preinc1	equ	0xFE4
  6102                           plusw1	equ	0xFE3
  6103                           fsr1h	equ	0xFE2
  6104                           fsr1l	equ	0xFE1
  6105                           bsr	equ	0xFE0
  6106                           indf2	equ	0xFDF
  6107                           postinc2	equ	0xFDE
  6108                           postdec2	equ	0xFDD
  6109                           preinc2	equ	0xFDC
  6110                           plusw2	equ	0xFDB
  6111                           fsr2h	equ	0xFDA
  6112                           fsr2l	equ	0xFD9
  6113                           status	equ	0xFD8

Data Sizes:
    Strings     5
    Constant    0
    Data        10
    BSS         12
    Persistent  0
    Stack       0

Auto Spaces:
    Space          Size  Autos    Used
    COMRAM           94     93      93
    BANK0           160     58      80
    BANK1           256      0       0
    BANK2           256      0       0
    BANK3           256      0       0
    BANK4           256      0       0
    BANK5           256      0       0
    BANK6           256      0       0
    BANK7           256      0       0

Pointer List with Targets:

    lcd_string@a	PTR unsigned char  size(1) Largest target is 5
		 -> STR_1(CODE[5]), 

    sp__uart_read_buffer	PTR short  size(2) Largest target is 0

    uart_write_buffer@data	PTR short  size(1) Largest target is 10
		 -> payload(BANK0[10]), 


Critical Paths under _main in COMRAM

    _main->_uart_init
    _uart_init->_fabsf
    _fminf->___fpclassifyf
    _fabsf->___flsub
    ___fltol->___fladd
    ___flsub->___fladd
    ___fladd->___fldiv
    ___fldiv->___flmul
    _test->_lcd_char
    _lcd_string->_lcd_char
    _lcd_char->_lcd_set_bit
    _lcd_set_cursor->_lcd_cmd
    _lcd_init->_lcd_cmd
    _lcd_clear->_lcd_cmd
    _lcd_cmd->_lcd_set_bit

Critical Paths under _low_isr in COMRAM

    None.

Critical Paths under _main in BANK0

    _main->_uart_init

Critical Paths under _low_isr in BANK0

    None.

Critical Paths under _main in BANK1

    None.

Critical Paths under _low_isr in BANK1

    None.

Critical Paths under _main in BANK2

    None.

Critical Paths under _low_isr in BANK2

    None.

Critical Paths under _main in BANK3

    None.

Critical Paths under _low_isr in BANK3

    None.

Critical Paths under _main in BANK4

    None.

Critical Paths under _low_isr in BANK4

    None.

Critical Paths under _main in BANK5

    None.

Critical Paths under _low_isr in BANK5

    None.

Critical Paths under _main in BANK6

    None.

Critical Paths under _low_isr in BANK6

    None.

Critical Paths under _main in BANK7

    None.

Critical Paths under _low_isr in BANK7

    None.

Call Graph Tables:

 ---------------------------------------------------------------------------------
 (Depth) Function   	        Calls       Base Space   Used Autos Params    Refs
 ---------------------------------------------------------------------------------
 (0) _main                                                 3     3      0   26455
                                             91 COMRAM     2     2      0
                                             57 BANK0      1     1      0
                          _lcd_clear
                           _lcd_init
                     _lcd_set_cursor
                         _lcd_string
                               _test
                          _uart_init
                          _uart_read
                  _uart_write_buffer
 ---------------------------------------------------------------------------------
 (1) _uart_write_buffer                                    7     4      3     286
                                              1 COMRAM     7     4      3
 ---------------------------------------------------------------------------------
 (1) _uart_read                                            5     3      2      50
                                              1 COMRAM     5     3      2
 ---------------------------------------------------------------------------------
 (1) _uart_init                                           65    61      4   24558
                                             83 COMRAM     8     4      4
                                              0 BANK0     57    57      0
                            ___fladd
                            ___fldiv
                             ___fleq
                             ___flge
                            ___flmul
                            ___flsub
                            ___fltol
                           ___xxtofl
                              _fabsf
                              _fminf
 ---------------------------------------------------------------------------------
 (2) _fminf                                               10     2      8    2549
                                             15 COMRAM    10     2      8
                             ___flge
                      ___fpclassifyf
                         ___signbitf
 ---------------------------------------------------------------------------------
 (3) ___signbitf                                          12     8      4     274
                                              1 COMRAM    12     8      4
 ---------------------------------------------------------------------------------
 (3) ___fpclassifyf                                       14    10      4     287
                                              1 COMRAM    14    10      4
 ---------------------------------------------------------------------------------
 (3) ___flge                                              12     4      8    1246
                                              1 COMRAM    12     4      8
 ---------------------------------------------------------------------------------
 (2) _fabsf                                                8     4      4     959
                                             75 COMRAM     8     4      4
                            ___fldiv (ARG)
                            ___flsub (ARG)
                           ___xxtofl (ARG)
 ---------------------------------------------------------------------------------
 (2) ___xxtofl                                            14    10      4    1310
                                              1 COMRAM    14    10      4
 ---------------------------------------------------------------------------------
 (2) ___fltol                                             10     6      4     457
                                             67 COMRAM    10     6      4
                            ___fladd (ARG)
                            ___fldiv (ARG)
                            ___flmul (ARG)
 ---------------------------------------------------------------------------------
 (2) ___flsub                                              8     0      8    4713
                                             67 COMRAM     8     0      8
                            ___fladd
                            ___fldiv (ARG)
                           ___xxtofl (ARG)
 ---------------------------------------------------------------------------------
 (3) ___fladd                                             16     8      8    2718
                                             51 COMRAM    16     8      8
                            ___fldiv (ARG)
                            ___flmul (ARG)
 ---------------------------------------------------------------------------------
 (2) ___flmul                                             25    17      8    2048
                                              1 COMRAM    25    17      8
 ---------------------------------------------------------------------------------
 (2) ___fleq                                              12     4      8     646
                                              1 COMRAM    12     4      8
 ---------------------------------------------------------------------------------
 (2) ___fldiv                                             25    17      8    5351
                                             26 COMRAM    25    17      8
                            ___flmul (ARG)
                           ___xxtofl (ARG)
 ---------------------------------------------------------------------------------
 (1) _test                                                 1     1      0     292
                                              9 COMRAM     1     1      0
                           _lcd_char
 ---------------------------------------------------------------------------------
 (1) _lcd_string                                           4     3      1     436
                                              9 COMRAM     4     3      1
                           _lcd_char
 ---------------------------------------------------------------------------------
 (2) _lcd_char                                             7     7      0     270
                                              2 COMRAM     7     7      0
                        _lcd_set_bit
 ---------------------------------------------------------------------------------
 (1) _lcd_set_cursor                                       5     4      1     456
                                              4 COMRAM     5     4      1
                            _lcd_cmd
 ---------------------------------------------------------------------------------
 (1) _lcd_init                                             3     3      0     244
                                              4 COMRAM     1     1      0
                            _lcd_cmd
                        _lcd_set_bit
 ---------------------------------------------------------------------------------
 (1) _lcd_clear                                            0     0      0     110
                            _lcd_cmd
 ---------------------------------------------------------------------------------
 (2) _lcd_cmd                                              2     2      0     110
                                              2 COMRAM     2     2      0
                        _lcd_set_bit
 ---------------------------------------------------------------------------------
 (3) _lcd_set_bit                                          1     1      0      88
                                              1 COMRAM     1     1      0
 ---------------------------------------------------------------------------------
 Estimated maximum stack depth 3
 ---------------------------------------------------------------------------------
 (Depth) Function   	        Calls       Base Space   Used Autos Params    Refs
 ---------------------------------------------------------------------------------
 (4) _low_isr                                              1     1      0       0
                                              0 COMRAM     1     1      0
 ---------------------------------------------------------------------------------
 Estimated maximum stack depth 4
 ---------------------------------------------------------------------------------

 Call Graph Graphs:

 _main (ROOT)
   _lcd_clear
     _lcd_cmd
       _lcd_set_bit
   _lcd_init
     _lcd_cmd
     _lcd_set_bit
   _lcd_set_cursor
     _lcd_cmd
   _lcd_string
     _lcd_char
       _lcd_set_bit
   _test
     _lcd_char
   _uart_init
     ___fladd
       ___fldiv (ARG)
         ___flmul (ARG)
         ___xxtofl (ARG)
       ___flmul (ARG)
     ___fldiv
     ___fleq
     ___flge
     ___flmul
     ___flsub
       ___fladd
       ___fldiv (ARG)
       ___xxtofl (ARG)
     ___fltol
       ___fladd (ARG)
       ___fldiv (ARG)
       ___flmul (ARG)
     ___xxtofl
     _fabsf
       ___fldiv (ARG)
       ___flsub (ARG)
       ___xxtofl (ARG)
     _fminf
       ___flge
       ___fpclassifyf
       ___signbitf
   _uart_read
   _uart_write_buffer

 _low_isr (ROOT)

 Address spaces:
Name               Size   Autos  Total    Cost      Usage
BIGRAM             7FF      0       0      28        0.0%
EEDATA             100      0       0       0        0.0%
BITBANK7           100      0       0      18        0.0%
BANK7              100      0       0      19        0.0%
BITBANK6           100      0       0      16        0.0%
BANK6              100      0       0      17        0.0%
BITBANK5           100      0       0      14        0.0%
BANK5              100      0       0      15        0.0%
BITBANK4           100      0       0      12        0.0%
BANK4              100      0       0      13        0.0%
BITBANK3           100      0       0      10        0.0%
BANK3              100      0       0      11        0.0%
BITBANK2           100      0       0       8        0.0%
BANK2              100      0       0       9        0.0%
BITBANK1           100      0       0       6        0.0%
BANK1              100      0       0       7        0.0%
BITBANK0            A0      0       0       4        0.0%
BANK0               A0     3A      50       5       50.0%
BITCOMRAM           5E      0       0       0        0.0%
COMRAM              5E     5D      5D       1       98.9%
BITBIGSFRhhhh       3A      0       0      20        0.0%
BITBIGSFRl          2C      0       0      26        0.0%
BITBIGSFRhlhh        C      0       0      23        0.0%
BITBIGSFRhhhl        C      0       0      21        0.0%
BITBIGSFRhlhl        7      0       0      24        0.0%
BITBIGSFRhhlh        7      0       0      22        0.0%
BITBIGSFRhll         7      0       0      25        0.0%
BIGSFR               0      0       0     200        0.0%
BITSFR               0      0       0     200        0.0%
SFR                  0      0       0     200        0.0%
STACK                0      0       0       2        0.0%
NULL                 0      0       0       0        0.0%
ABS                  0      0      AD      27        0.0%
DATA                 0      0      AD       3        0.0%
CODE                 0      0       0       0        0.0%


Microchip Technology PIC18 Macro Assembler V2.45 build 20230818022343 
Symbol Table                                                                                   Mon Sep 09 11:44:53 2024

             ?_lcd_set_bit 0001               ___fldiv@aexp 0033               ___fldiv@bexp 0032  
             lcd_char@data 0005              lcd_char@i_172 0008               ___fldiv@sign 002B  
                       l71 2E6E                         l80 3006                         l73 2E84  
                       l75 2E9A                         l83 3014                         l77 2E9C  
                       l69 2E58                         l94 2E40                         l89 2DDE  
                       l97 2CB2                         l98 2CD4                         l99 2CE6  
                       bsr 0FE0                        l100 2D08                        l101 2D0A  
                      l110 3028                        l130 1806                        l107 2F74  
                      l131 180A                        l123 174E                        l132 181E  
                      l133 1822                        l125 185A                        l134 1838  
                      l135 183C                        l127 17EA                        l151 2B70  
                      l136 1850                        l128 17DE                        l160 2BFE  
                      l152 2BB0                        l137 1852                        l153 2BC0  
                      l163 2D0C                        l165 2D1A                        l157 2BF0  
                      l166 2D34                        l167 2D78                        l168 2D4C  
                      l461 2974                        l455 2B62                        l810 1DE0  
                      l466 29BA                        l820 203C                        l724 1A4A  
                      l900 2AB8                        l741 1B64                        l733 1D1A  
                      l725 1A38                        l493 28B6                        l814 2144  
                      l750 1C34                        l726 19FE                        l751 1C22  
                      l817 1FD6                        l906 2EEC                        l827 2106  
                      l819 204E                        l851 2536                        l780 233E  
                      l766 2F32                        l854 2692                        l791 23FC  
                      l783 2302                        l792 23EA                        l872 2FE6  
                      l880 27B0                        l865 262A                        l778 24DE  
                      l858 25CE                        l789 2384                        _RX9 7D5E  
                      _TX9 7D66                        wreg 0FE8               ___flmul@aexp 0013  
             ___flmul@bexp 0014               ___flmul@sign 000E               ___flmul@temp 0019  
             ___flmul@prod 0015            ?_lcd_set_cursor 0005               ___fltol@exp1 004D  
                     l2000 1BA8                       l2010 1BD2                       l2002 1BB6  
                     l2020 1C04                       l2012 1BE2                       l2004 1BB8  
                     l2110 2FEC                       l2030 1C5E                       l2022 1C1A  
                     l2006 1BC6                       l2014 1BE4                       l2102 2E9E  
                     l2112 2FF2                       l2120 2C9E                       l2200 21C6  
                     l2040 1CDA                       l2032 1C98                       l2008 1BCE  
                     l2016 1BF2                       l2104 2EBE                       l2114 2FF4  
                     l2122 2CA0                       l2210 21FA                       l2202 21C8  
                     l2050 1CFA                       l2042 1CDE                       l2026 1C44  
                     l2034 1C9A                       l2018 1BF6                       l2116 3004  
                     l2108 2FEA                       l2140 2CDE                       l2132 2CB4  
                     l2124 2CA8                       l2300 24BE                       l2220 2240  
                     l2204 21D8                       l2212 2202                       l2052 1D08  
                     l2044 1CEC                       l2036 1CAA                       l2028 1C50  
                     l2060 28E6                       l2134 2CBA                       l2126 2CAA  
                     l2118 2C92                       l2302 24CC                       l2230 2268  
                     l2222 2244                       l2214 2212                       l2206 21E8  
                     l2054 1D0A                       l2046 1CF2                       l2038 1CBA  
                     l2150 2FB4                       l2070 2954                       l2062 28F6  
                     l2136 2CD6                       l2304 24D2                       l2240 22B6  
                     l2216 2228                       l2208 21F8                       l2400 1FD4  
                     l2320 1D38                       l2048 1CF4                       l2152 2FD4  
                     l2072 2962                       l2064 2924                       l2080 29BC  
                     l2160 26BA                       l2146 2CE8                       l2138 2CDC  
                     l2306 24D4                       l2250 2300                       l2242 22C6  
                     l2234 227C                       l2218 2238                       l2226 2258  
                     l2410 2034                       l2402 1FE6                       l2330 1D7E  
                     l2322 1D48                       l2314 1D1C                       l2154 2FD6  
                     l2074 29B2                       l2066 2934                       l2058 28B8  
                     l2082 29DC                       l2162 26CE                       l2148 2CEE  
                     l2260 234E                       l2252 230C                       l2244 22CE  
                     l2236 2296                       l2228 2268                       l2180 2160  
                     l2420 20A2                       l2404 1FF4                       l2340 1DAA  
                     l2332 1D84                       l2324 1D58                       l2316 1D28  
                     l2500 2876                       l2076 29B8                       l2068 2942  
                     l2084 2A1A                       l2092 2A5A                       l2172 277A  
                     l2164 26F4                       l2262 2364                       l2270 2394  
                     l2254 232A                       l2246 22DE                       l2238 22A6  
                     l2190 2194                       l2182 2162                       l2430 210A  
                     l2414 205E                       l2422 20A6                       l2406 1FF8  
                     l2350 1E00                       l2342 1DBA                       l2334 1D8A  
                     l2326 1D68                       l2318 1D36                       l2502 2886  
                     l2510 24E2                       l2094 2A6C                       l2086 2A42  
                     l2166 2708                       l2158 2694                       l2600 2E28  
                     l2272 23A2                       l2264 236A                       l2256 232C  
                     l2248 22F2                       l2184 2172                       l2192 219C  
                     l2176 2146                       l2440 2134                       l2432 211A  
                     l2424 20C0                       l2416 206A                       l2408 2006  
                     l2360 1E40                       l2344 1DCA                       l2336 1D98  
                     l2328 1D6E                       l2504 2896                       l2512 24F2  
                     l2088 2A4E                       l2168 2750                       l2602 2E2E  
                     l2610 2F40                       l2282 240C                       l2290 2454  
                     l2274 23A6                       l2266 2374                       l2258 233C  
                     l2194 21AC                       l2186 2182                       l2178 2152  
                     l2450 2ABA                       l2434 2128                       l2426 20D4  
                     l2418 2078                       l2370 1E8A                       l2362 1E4C  
                     l2354 1E14                       l2346 1DD0                       l2338 1D9A  
                     l2506 28A6                       l2530 25B8                       l2522 2570  
                     l2514 2500                       l2098 2AB0                       l2604 2E34  
                     l2612 2F52                       l2292 246E                       l2284 2418  
                     l2276 23B4                       l2268 2382                       l2196 21B2  
                     l2188 2192                       l2460 2B5A                       l2452 2AE8  
                     l2436 212A                       l2428 20EE                       l2380 1EDC  
                     l2372 1E96                       l2364 1E64                       l2356 1E20  
                     l2348 1DF0                       l1900 194E                       l2444 2EEE  
                     l2540 2638                       l2532 25C4                       l2524 2578  
                     l2516 2546                       l2700 1830                       l2620 081E  
                     l2606 2E3A                       l2614 2F56                       l2294 2484  
                     l2286 2426                       l2278 23E2                       l2198 21B8  
                     l2462 2B60                       l2454 2AF8                       l2438 2130  
                     l2390 1F5A                       l2382 1EEC                       l2374 1EA6  
                     l2366 1E70                       l2358 1E2A                       l1910 196C  
                     l1902 195C                       l2446 2EFE                       l2550 2680  
                     l2542 263A                       l2534 2600                       l2526 2584  
                     l2518 255C                       l2702 184A                       l2630 09F4  
                     l2622 0844                       l2710 2BD2                       l1840 2E44  
                     l2560 2D8C                       l2608 2F34                       l2616 3022  
                     l2296 249E                       l2288 2450                       l2456 2B26  
                     l2392 1F90                       l2384 1F08                       l2376 1EB2  
                     l2368 1E7C                       l1920 1980                       l1912 1970  
                     l1904 1960                       l2480 281C                       l2472 27DC  
                     l2552 2682                       l2544 263E                       l2536 260C  
                     l2528 25B6                       l2640 0CC8                       l2632 0A14  
                     l2624 08D4                       l2720 2D42                       l2712 2D0C  
                     l2704 2B64                       l1850 2E7E                       l1842 2E52  
                     l2570 2DD2                       l2562 2D9E                       l2298 24BA  
                     l2458 2B36                       l2394 1F9E                       l2386 1F14  
                     l2378 1EC2                       l1930 1994                       l1922 1984  
                     l1914 1974                       l1906 1964                       l2490 284C  
                     l2482 282A                       l2474 2806                       l2466 27B2  
                     l2546 2662                       l2538 261A                       l2650 0E32  
                     l2642 0D10                       l2634 0C06                       l2626 0964  
                     l2618 080C                       l2730 2D6E                       l2714 2D28  
                     l2706 2B7E                       l1852 2E86                       l1844 2E5A  
                     l2556 3008                       l2572 2DD8                       l2564 2DA4  
                     l2396 1FBC                       l2388 1F30                       l1940 19E6  
                     l1932 1998                       l1924 1988                       l1916 1978  
                     l1908 1968                       l1860 1876                       l2492 2856  
                     l2476 2808                       l2468 27C8                       l2548 2672  
                     l2660 100C                       l2652 0E4C                       l2644 0DA8  
                     l2636 0C16                       l2628 09F4                       l2732 2D72  
                     l2716 2D2A                       l2708 2BCE                       l1854 2E94  
                     l1846 2E68                       l2590 2DFA                       l2574 2DE0  
                     l2566 2DAE                       l2558 2D7C                       l2398 1FC6  
                     l1950 1A2A                       l1942 19F6                       l1926 198C  
                     l1918 197C                       l1934 199C                       l1870 18AA  
                     l1862 1878                       l2478 2818                       l2662 103E  
                     l2654 0EE4                       l2646 0DF0                       l2638 0C30  
                     l2670 10D4                       l2726 2D5A                       l2750 2C16  
                     l1848 2E70                       l2592 2E10                       l2576 2DE6  
                     l2568 2DC0                       l1952 1A2C                       l1944 1A0C  
                     l1936 19A0                       l1928 1990                       l1880 18DC  
                     l1864 1888                       l1872 18B2                       l1856 185C  
                     l2488 2842                       l2680 14F6                       l2672 10F2  
                     l2664 104E                       l2656 0F2C                       l2648 0E22  
                     l2728 2D64                       l2760 2C60                       l2752 2C1A  
                     l2744 2C00                       l2594 2E16                       l2586 2DE6  
                     l2578 2DE6                       l1970 1AB4                       l1962 1A7C  
                     l1954 1A36                       l1946 1A18                       l1938 19CA  
                     l1890 1912                       l1882 18E2                       l1874 18C2  
                     l1866 1898                       l1858 1868                       l2498 286A  
                     l2690 1790                       l2674 12E4                       l2682 152E  
                     l2666 1068                       l2658 0FC4                       l2762 2C6A  
                     l2754 2C22                       l2746 2C08                       l2596 2E1C  
                     l2588 2DEC                       l1972 1AB8                       l1964 1A8C  
                     l1956 1A58                       l1980 1AD8                       l1948 1A1C  
                     l1892 1922                       l1884 18F0                       l1876 18C8  
                     l1868 18A8                       l2692 179C                       l2684 154C  
                     l2676 12F4                       l2668 109C                       l2764 2C70  
                     l2756 2C38                       l2748 2C0C                       l2598 2E22  
                     l1982 1AFE                       l1990 1B54                       l1974 1AC6  
                     l1966 1A9A                       l1958 1A68                       l1894 1924  
                     l1886 18F2                       l1878 18DA                       l2694 17CE  
                     l2686 173E                       l2678 14E6                       l2758 2C50  
                     l1992 1B7A                       l1984 1B32                       l1976 1AC8  
                     l1968 1AA8                       l1888 1902                       l1896 192C  
                     l2696 17FE                       l2688 175E                       l1994 1B8A  
                     l1986 1B34                       l1978 1AD2                       l1898 193C  
                     l2698 1818                       l1988 1B44                       l1998 1B9E  
                     STR_1 0801                       _BRGH 7D62                       _CREN 7D5C  
                     _FERR 7D5A                       u2000 1BB6                       u2001 1BB2  
                     u2010 1BC6                       u2011 1BC2                       u2100 1CAA  
                     u2020 1BE2                       u2101 1CA6                       u2021 1BDE  
                     u2110 1CBA                       u2030 1BF2                       u2111 1CB6  
                     u2031 1BEE                       u2120 1CDA                       u2040 1C04  
                     u2200 29FC                       u3000 0A14                       u2121 1CD6  
                     u2041 1C00                       u3001 0A10                       u2130 1CEC  
                     u2050 1C1A                       u2210 2A1A                       u2131 1CE8  
                     u2051 1C16                       u2211 2A16                       u2140 1D08  
                     u2060 1C30                       u2220 2A42                       u2300 26BA  
                     u3100 10F2                       u2141 1D04                       u2061 1C2C  
                     u2221 2A3E                       u2205 29F2                       u2301 26B6  
                     u3101 10EE                       u2070 1C44                       u2150 28E6  
                     u2230 2A6C                       u2310 26F4                       u3030 0C06  
                     u2071 1C40                       u2151 28E2                       u2231 2A68  
                     u2311 26F0                       u3031 0C02                       u3015 0A36  
                     u2400 21E8                       u2080 1C5E                       u2160 2924  
                     u2320 2750                       u3200 173E                       _LATD 0F8C  
                     u2401 21E4                       u2081 1C5A                       u2161 2920  
                     u2321 274C                       u3201 173A                       u3025 0B16  
                     u2410 2228                       u2090 1C98                       u2170 2942  
                     u2250 2AA6                       u2330 2776                       u3210 1790  
                     u3130 12E4                       u2411 2224                       u2091 1C94  
                     u2171 293E                       u2251 2AA0                       u2331 2772  
                     u3211 178C                       u3131 12E0                       u3115 1114  
                     u2500 23B4                       u2420 2268                       u2180 2962  
                     u2260 2AA8                       u2340 27AC                       u3220 17CE  
                     u3060 0E22                       u3300 2BCE                       u2501 23B0  
                     u2421 2264                       u2181 295E                       u2245 2A7E  
                     u2341 27A8                       u3221 17CA                       u3125 11F4  
                     u3061 0E1E                       u3045 0C52                       u3301 2BCA  
                     u2510 23E2                       u2430 22DE                       u2350 2160  
                     u2190 29B2                       u2270 2EDE                       u3230 17FE  
                     u3310 2BF0                       u2511 23DE                       u2431 22DA  
                     u2351 215C                       u2191 29AE                       u3231 17FA  
                     u3055 0D32                       u3311 2BEC                       u1720 2E52  
                     u2280 2CD4                       u2520 23F8                       u2440 2300  
                     u2360 2172                       u2600 1D58                       u1800 18F0  
                     u3240 1818                       u3160 14E6                       u3320 2BFE  
                     u1721 2E4E                       u2281 2CD0                       u2521 23F4  
                     u2441 22FC                       u2361 216E                       u2601 1D54  
                     u1801 18EC                       u3241 1814                       u3161 14E2  
                     u3145 1316                       u3321 2BFA                       u1730 2E68  
                     u2290 2D08                       u2530 240C                       u2450 232A  
                     u2370 2182                       u2610 1D98                       u1810 1902  
                     u3250 1830                       u3170 154C                       u3090 103E  
                     u3330 2D1A                       u1731 2E64                       u2291 2D04  
                     u2531 2408                       u2451 2326                       u2371 217E  
                     u2611 1D94                       u1811 18FE                       u2275 2ED4  
                     u3251 182C                       u3171 1548                       u3155 13F6  
                     u3091 103A                       u3075 0E6E                       u3331 2D16  
                     u1740 2E7E                       u2540 2426                       u2460 234E  
                     u2380 21C6                       u2700 2034                       u2620 1DAA  
                     u1900 1A4A                       u1820 1912                       u3260 184A  
                     u3340 2D28                       u1741 2E7A                       u2541 2422  
                     u2461 234A                       u2381 21C2                       u2701 2030  
                     u2621 1DA6                       u1901 1A46                       u1821 190E  
                     u3261 1846                       u3085 0F4E                       u3341 2D24  
                     u1750 2E94                       u2550 246E                       u2470 2364  
                     u2390 21D8                       u2710 204A                       u2630 1DBA  
                     u1910 1A58                       u1830 194E                       u3350 2D42  
                     u3270 2B7E                       u1751 2E90                       u3407 2DF2  
                     u2551 246A                       u2471 2360                       u2391 21D4  
                     u2711 2046                       u2631 1DB6                       u1911 1A54  
                     u1831 194A                       u3351 2D3E                       u3271 2B7A  
                     u2560 249E                       u2480 2382                       u2720 205E  
                     u2640 1DF0                       u1920 1A68                       u1840 195C  
                     u1760 1876                       u2800 27C8                       u3360 2D5A  
                     u3280 2BAE                       u3417 2E06                       u2561 249A  
                     u2481 237E                       u2721 205A                       u2641 1DEC  
                     u1921 1A64                       u1841 1958                       u1761 1872  
                     u2801 27C4                       u3185 156E                       u3361 2D56  
                     u3281 2BA8                       u2570 24CC                       u2490 23A2  
                     u2730 2078                       u2650 1E00                       u1930 1A9A  
                     u1850 19CA                       u1770 1888                       u2810 27FC  
                     u3427 2FFA                       u2571 24C8                       u2491 239E  
                     u2731 2074                       u2651 1DFC                       u1931 1A96  
                     u1851 19C6                       u1771 1884                       u3195 164E  
                     u2740 20C0                       u2660 1F7A                       u2580 1D36  
                     u1940 1AA8                       u1860 19E2                       u1780 1898  
                     u2820 282A                       u2900 25B2                       u2741 20BC  
                     u2581 1D32                       u1941 1AA4                       u1861 19DC  
                     u1781 1894                       u2821 2826                       u2901 25AE  
                     u2750 20EE                       u2670 1FD4                       u2590 1D48  
                     u1950 1AC6                       u1870 19E4                       u1790 18DA  
                     u2830 283E                       u2910 25FC                       u2751 20EA  
                     u2671 1FD0                       u2591 1D44                       u1951 1AC2  
                     u1791 18D6                       u2831 283A                       u2815 27F2  
                     u2911 25F8                       u3295 2BB0                       u2760 2128  
                     u2680 1FF4                       u1960 1AFE                       u1880 1A0C  
                     u2840 2866                       u2920 261A                       u2761 2124  
                     u2681 1FF0                       u2665 1F70                       u1961 1AFA  
                     u1881 1A08                       u2841 2862                       u2921 2616  
                     u2770 2AE8                       u2690 2006                       u1970 1B44  
                     u1890 1A2A                       u2850 2886                       u2930 262A  
                     u2771 2AE4                       u2691 2002                       u1971 1B40  
                     u1891 1A26                       u2851 2882                       u2931 2626  
                     u3387 2C42                       u2780 2B26                       u1980 1B7A  
                     u2860 2896                       u2940 2638                       u2781 2B22  
                     u1981 1B76                       u2861 2892                       u2941 2634  
                     u3397 2C7A                       u2790 2B5A                       u1990 1B8A  
                     u2950 2672                       u2870 24F2                       u2791 2B56  
                     u1991 1B86                       u2951 266E                       u2871 24EE  
                     u2960 2680                       u2880 2500                       u2961 267C  
                     u2881 24FC                       u2970 2D8C                       u2890 255C  
                     u2971 2D88                       u2891 2558                       _RCIE 7CED  
                     u2980 2DC0                       _RCEN 7E2B                       _RCIF 7CF5  
                     u2981 2DBC                       u2990 2F74                       u2991 2F70  
                     _OERR 7D59                       _RX9D 7D58                       _SPEN 7D5F  
                     _TX9D 7D60                       _SREN 7D5D                       _TRMT 7D61  
                     _TXIE 7CEC                       _TXIF 7CF4                       _TXEN 7D65  
                     _SYNC 7D64                main@payload 0099                       _main 2C00  
                     _test 3020                       fsr2h 0FDA                       indf2 0FDF  
                     fsr1l 0FE1                       fsr2l 0FD9                       btemp 005E  
            ___fpclassifyf 29BC                       prodh 0FF4                       prodl 0FF3  
                     start 0026                lcd_string@a 000A                lcd_string@i 000C  
          ___fldiv@new_exp 002C               ___param_bank 0000              ___fltol@sign1 004C  
          __end_of___fladd 1D1C                      ?_main 0001            __end_of___fldiv 24E0  
                    _BRG16 7DC3            __end_of___flmul 2146                      ?_test 0001  
          __end_of___flsub 2F34            __end_of___fltol 28B8                      i1l193 001E  
                    _RCREG 0FAE                      _SPBRG 0FAF                      _TRISD 0F95  
                    _RXDTP 7DC5                      _TXCKP 7DC4                      _TXREG 0FAD  
          __end_of_lcd_cmd 3008                      _fabsf 2FB4                      _fminf 2694  
          __end_of_low_isr 0026                      tablat 0FF5               ___signbitf@x 0002  
             ___signbitf@y 000A                      test@s 000A                      ttemp5 005F  
                    ttemp6 0062                      ttemp7 0066                      status 0FD8  
                    wtemp8 005F             ?___fpclassifyf 0002            __initialization 2F76  
             __end_of_main 2C90               __end_of_test 302A                     ??_main 005C  
                   ??_test 000A              __activetblptr 0001                     ?_fabsf 004C  
                   ?_fminf 0010                     _SPBRGH 0FB0           __end_of___xxtofl 2694  
      lcd_set_bit@data_bit 0002           __end_of_lcd_char 2D0C           __end_of_lcd_init 2E42  
                   ___flge 28B8                     ___fleq 2ABA                  ??___fladd 003C  
                ??___fldiv 0023                  ??___flmul 000A                  ??___flsub 004C  
                ??___fltol 0048                     fabsf@u 0050                     fabsf@x 004C  
                   clear_0 2F9C                     isa$std 0001                  ??_lcd_cmd 0003  
     lcd_char@Lower_Nibble 0003                     fminf@x 0010                     fminf@y 0014  
          ___fpclassifyf@e 000A            ___fpclassifyf@u 000C            ___fpclassifyf@x 0002  
             __mediumconst 0000                  ??_low_isr 0001                     tblptrh 0FF7  
                   tblptrl 0FF6                     tblptru 0FF8                 ___flge@ff1 0002  
               ___flge@ff2 0006            ??___fpclassifyf 0006               ___xxtofl@arg 000C  
             ___xxtofl@exp 000B               ___xxtofl@val 0002                 ___fleq@ff1 0002  
               ___fleq@ff2 0006                 __accesstop 0060    __end_of__initialization 2FA2  
            ___rparam_used 0001                 ___fltol@f1 0044             __pcstackCOMRAM 0001  
             __pidataBANK0 3016              __end_of_fabsf 2FE8              __end_of_fminf 27B2  
               ___signbitf 2E9E           ??_lcd_set_cursor 0006                    ??_fabsf 0050  
       uart_write_buffer@i 0007                    ??_fminf 0018                 __pbssBANK0 009A  
                  ?___flge 0002                    ?___fleq 0002                  ?___xxtofl 0002  
                ?_lcd_char 0001                 _lcd_string 2F34                  ?_lcd_init 0001  
                  __Hparam 0000                    __Lparam 0000          __end_of_lcd_clear 3016  
                  ___fladd 185C                    ___fldiv 2146                    ___flmul 1D1C  
                  ___flsub 2EEE                    ___fltol 27B2               __psmallconst 0800  
              ?___signbitf 0002                    __pcinit 2F76                    __ramtop 0800  
                  __ptext0 2C00                    __ptext1 2B64                    __ptext2 2D0C  
                  __ptext3 0808                    __ptext4 2694                    __ptext5 2E9E  
                  __ptext6 29BC                    __ptext7 28B8                    __ptext8 2FB4  
                  __ptext9 24E0                    _lcd_cmd 2FE8                 ??___xxtofl 0006  
                  _payload 00A6                    _low_isr 0018      uart_write_buffer@data 0002  
               ??_lcd_char 0003                 ??_lcd_init 0005       end_of_initialization 2FA2  
        __end_of_uart_init 185C          __end_of_uart_read 2D7A                    postdec1 0FE5  
                  postdec2 0FDD                    postinc0 0FEE                    postinc2 0FDE  
              uart_init@e1 006C                uart_init@e2 0079                uart_init@e3 0081  
     lcd_char@Upper_Nibble 0004                ___fladd@grs 0043              ___xxtofl@sign 000A  
                _TRISCbits 0F94                ___fldiv@grs 002E                ___fldiv@rem 0027  
              ?_lcd_string 000A                ___flmul@grs 000F              ??_lcd_set_bit 0002  
           __end_of___flge 29BC             __end_of___fleq 2B64        start_initialization 2F76  
    __end_of___fpclassifyf 2ABA                   ??___flge 000A                   ??___fleq 000A  
              __pdataBANK0 00A6        __end_of_lcd_set_bit 2E9E                  ___fladd@a 0038  
                ___fladd@b 0034                  ___fldiv@a 001F                  ___fldiv@b 001B  
                ___flmul@a 0006                  ___flmul@b 0002                  ___flsub@a 0048  
                ___flsub@b 0044              __pcstackBANK0 0060                   ?___fladd 0034  
                 ?___fldiv 001B                   ?___flmul 0002                   ?___flsub 0044  
                 ?___fltol 0044               ??___signbitf 0006                  _lcd_clear 3008  
              __pintcodelo 0018                   ?_lcd_cmd 0001                  fabsf@F465 00A2  
              __smallconst 0800      uart_read@receivedData 0006                   ?_low_isr 0001  
       __end_of___signbitf 2EEE                   _LATDbits 0F8C            lcd_set_cursor@a 0006  
          lcd_set_cursor@b 0005            lcd_set_cursor@y 0008            lcd_set_cursor@z 0007  
          uart_init@config 0070    uart_write_buffer@length 0003                _lcd_set_bit 2E42  
                _uart_init 0808                  _uart_read 2D0C                 uart_init@x 0075  
               uart_init@y 0085                 uart_init@z 0089                 ?_lcd_clear 0001  
                lcd_char@i 0006               ??_lcd_string 000B                  copy_data0 2F8A  
        uart_init@BAUDRATE 0054                   __Hrparam 0000                   __Lrparam 0000  
             __Lsmallconst 0800                 ?_uart_init 0054                 ?_uart_read 0002  
       __end_of_lcd_string 2F76              _uart_init$918 008D              _uart_init$919 0060  
            _uart_read$208 0004         ___fpclassifyf@F465 009E         lcd_set_cursor@temp 0009  
                 ___xxtofl 24E0                   __ptext10 27B2                   __ptext11 2EEE  
                 __ptext20 2DE0                   __ptext12 185C                   __ptext21 3008  
                 __ptext13 1D1C                   __ptext22 2FE8                   __ptext14 2ABA  
                 __ptext23 2E42                   __ptext15 2146                   __ptext16 3020  
                 __ptext17 2F34                   __ptext18 2C90                   __ptext19 2D7A  
                 _lcd_char 2C90                   _lcd_init 2DE0                   isa$xinst 0000  
                 int$flags 005E                   lcd_cmd@a 0004                ??_lcd_clear 0005  
       uart_init@frequency 0091                   intlevel1 0000             _lcd_set_cursor 2D7A  
        _uart_write_buffer 2B64            ___signbitf@F521 009A          uart_init@baudrate 0095  
       ?_uart_write_buffer 0002                ??_uart_init 0058                ??_uart_read 0004  
      ??_uart_write_buffer 0005               uart_init@e11 0064               uart_init@e22 0071  
             uart_init@e33 007D               uart_init@min 0068     __end_of_lcd_set_cursor 2DE0  
__end_of_uart_write_buffer 2C00              ___fladd@signs 0040               ___fladd@aexp 0041  
             ___fladd@bexp 0042  
